
/home/asker/szu-lab/lab-test/tests/futest/cputest/build/./spike/quick-sort-spike.elf:     file format elf64-littleriscv


Disassembly of section .text:

0000000080000000 <partition>:
    80000000:	fd010113          	add	sp,sp,-48
    80000004:	02813423          	sd	s0,40(sp)
    80000008:	03010413          	add	s0,sp,48
    8000000c:	fca43c23          	sd	a0,-40(s0)
    80000010:	00058793          	mv	a5,a1
    80000014:	00060713          	mv	a4,a2
    80000018:	fcf42a23          	sw	a5,-44(s0)
    8000001c:	00070793          	mv	a5,a4
    80000020:	fcf42823          	sw	a5,-48(s0)
    80000024:	fd442783          	lw	a5,-44(s0)
    80000028:	00279793          	sll	a5,a5,0x2
    8000002c:	fd843703          	ld	a4,-40(s0)
    80000030:	00f707b3          	add	a5,a4,a5
    80000034:	0007a783          	lw	a5,0(a5)
    80000038:	fef42223          	sw	a5,-28(s0)
    8000003c:	fd442783          	lw	a5,-44(s0)
    80000040:	fef42623          	sw	a5,-20(s0)
    80000044:	fd042783          	lw	a5,-48(s0)
    80000048:	fef42423          	sw	a5,-24(s0)
    8000004c:	0e00006f          	j	8000012c <partition+0x12c>
    80000050:	fe842783          	lw	a5,-24(s0)
    80000054:	fff7879b          	addw	a5,a5,-1
    80000058:	fef42423          	sw	a5,-24(s0)
    8000005c:	fec42783          	lw	a5,-20(s0)
    80000060:	00078713          	mv	a4,a5
    80000064:	fe842783          	lw	a5,-24(s0)
    80000068:	0007071b          	sext.w	a4,a4
    8000006c:	0007879b          	sext.w	a5,a5
    80000070:	02f75263          	bge	a4,a5,80000094 <partition+0x94>
    80000074:	fe842783          	lw	a5,-24(s0)
    80000078:	00279793          	sll	a5,a5,0x2
    8000007c:	fd843703          	ld	a4,-40(s0)
    80000080:	00f707b3          	add	a5,a4,a5
    80000084:	0007a703          	lw	a4,0(a5)
    80000088:	fe442783          	lw	a5,-28(s0)
    8000008c:	0007879b          	sext.w	a5,a5
    80000090:	fce7c0e3          	blt	a5,a4,80000050 <partition+0x50>
    80000094:	fe842783          	lw	a5,-24(s0)
    80000098:	00279793          	sll	a5,a5,0x2
    8000009c:	fd843703          	ld	a4,-40(s0)
    800000a0:	00f70733          	add	a4,a4,a5
    800000a4:	fec42783          	lw	a5,-20(s0)
    800000a8:	00279793          	sll	a5,a5,0x2
    800000ac:	fd843683          	ld	a3,-40(s0)
    800000b0:	00f687b3          	add	a5,a3,a5
    800000b4:	00072703          	lw	a4,0(a4)
    800000b8:	00e7a023          	sw	a4,0(a5)
    800000bc:	0100006f          	j	800000cc <partition+0xcc>
    800000c0:	fec42783          	lw	a5,-20(s0)
    800000c4:	0017879b          	addw	a5,a5,1
    800000c8:	fef42623          	sw	a5,-20(s0)
    800000cc:	fec42783          	lw	a5,-20(s0)
    800000d0:	00078713          	mv	a4,a5
    800000d4:	fe842783          	lw	a5,-24(s0)
    800000d8:	0007071b          	sext.w	a4,a4
    800000dc:	0007879b          	sext.w	a5,a5
    800000e0:	02f75263          	bge	a4,a5,80000104 <partition+0x104>
    800000e4:	fec42783          	lw	a5,-20(s0)
    800000e8:	00279793          	sll	a5,a5,0x2
    800000ec:	fd843703          	ld	a4,-40(s0)
    800000f0:	00f707b3          	add	a5,a4,a5
    800000f4:	0007a703          	lw	a4,0(a5)
    800000f8:	fe442783          	lw	a5,-28(s0)
    800000fc:	0007879b          	sext.w	a5,a5
    80000100:	fce7d0e3          	bge	a5,a4,800000c0 <partition+0xc0>
    80000104:	fec42783          	lw	a5,-20(s0)
    80000108:	00279793          	sll	a5,a5,0x2
    8000010c:	fd843703          	ld	a4,-40(s0)
    80000110:	00f70733          	add	a4,a4,a5
    80000114:	fe842783          	lw	a5,-24(s0)
    80000118:	00279793          	sll	a5,a5,0x2
    8000011c:	fd843683          	ld	a3,-40(s0)
    80000120:	00f687b3          	add	a5,a3,a5
    80000124:	00072703          	lw	a4,0(a4)
    80000128:	00e7a023          	sw	a4,0(a5)
    8000012c:	fec42783          	lw	a5,-20(s0)
    80000130:	00078713          	mv	a4,a5
    80000134:	fe842783          	lw	a5,-24(s0)
    80000138:	0007071b          	sext.w	a4,a4
    8000013c:	0007879b          	sext.w	a5,a5
    80000140:	f0f74ee3          	blt	a4,a5,8000005c <partition+0x5c>
    80000144:	fec42783          	lw	a5,-20(s0)
    80000148:	00279793          	sll	a5,a5,0x2
    8000014c:	fd843703          	ld	a4,-40(s0)
    80000150:	00f707b3          	add	a5,a4,a5
    80000154:	fe442703          	lw	a4,-28(s0)
    80000158:	00e7a023          	sw	a4,0(a5)
    8000015c:	fec42783          	lw	a5,-20(s0)
    80000160:	00078513          	mv	a0,a5
    80000164:	02813403          	ld	s0,40(sp)
    80000168:	03010113          	add	sp,sp,48
    8000016c:	00008067          	ret

0000000080000170 <quick_sort>:
    80000170:	fd010113          	add	sp,sp,-48
    80000174:	02113423          	sd	ra,40(sp)
    80000178:	02813023          	sd	s0,32(sp)
    8000017c:	03010413          	add	s0,sp,48
    80000180:	fca43c23          	sd	a0,-40(s0)
    80000184:	00058793          	mv	a5,a1
    80000188:	00060713          	mv	a4,a2
    8000018c:	fcf42a23          	sw	a5,-44(s0)
    80000190:	00070793          	mv	a5,a4
    80000194:	fcf42823          	sw	a5,-48(s0)
    80000198:	fd442783          	lw	a5,-44(s0)
    8000019c:	00078713          	mv	a4,a5
    800001a0:	fd042783          	lw	a5,-48(s0)
    800001a4:	0007071b          	sext.w	a4,a4
    800001a8:	0007879b          	sext.w	a5,a5
    800001ac:	06f75463          	bge	a4,a5,80000214 <quick_sort+0xa4>
    800001b0:	fd042703          	lw	a4,-48(s0)
    800001b4:	fd442783          	lw	a5,-44(s0)
    800001b8:	00070613          	mv	a2,a4
    800001bc:	00078593          	mv	a1,a5
    800001c0:	fd843503          	ld	a0,-40(s0)
    800001c4:	e3dff0ef          	jal	80000000 <partition>
    800001c8:	00050793          	mv	a5,a0
    800001cc:	fef42623          	sw	a5,-20(s0)
    800001d0:	fec42783          	lw	a5,-20(s0)
    800001d4:	fff7879b          	addw	a5,a5,-1
    800001d8:	0007871b          	sext.w	a4,a5
    800001dc:	fd442783          	lw	a5,-44(s0)
    800001e0:	00070613          	mv	a2,a4
    800001e4:	00078593          	mv	a1,a5
    800001e8:	fd843503          	ld	a0,-40(s0)
    800001ec:	f85ff0ef          	jal	80000170 <quick_sort>
    800001f0:	fec42783          	lw	a5,-20(s0)
    800001f4:	0017879b          	addw	a5,a5,1
    800001f8:	0007879b          	sext.w	a5,a5
    800001fc:	fd042703          	lw	a4,-48(s0)
    80000200:	00070613          	mv	a2,a4
    80000204:	00078593          	mv	a1,a5
    80000208:	fd843503          	ld	a0,-40(s0)
    8000020c:	f65ff0ef          	jal	80000170 <quick_sort>
    80000210:	0080006f          	j	80000218 <quick_sort+0xa8>
    80000214:	00000013          	nop
    80000218:	02813083          	ld	ra,40(sp)
    8000021c:	02013403          	ld	s0,32(sp)
    80000220:	03010113          	add	sp,sp,48
    80000224:	00008067          	ret

0000000080000228 <main>:
    80000228:	fe010113          	add	sp,sp,-32
    8000022c:	00113c23          	sd	ra,24(sp)
    80000230:	00813823          	sd	s0,16(sp)
    80000234:	02010413          	add	s0,sp,32
    80000238:	01300613          	li	a2,19
    8000023c:	00000593          	li	a1,0
    80000240:	00000517          	auipc	a0,0x0
    80000244:	5f050513          	add	a0,a0,1520 # 80000830 <a>
    80000248:	f29ff0ef          	jal	80000170 <quick_sort>
    8000024c:	fe042623          	sw	zero,-20(s0)
    80000250:	0480006f          	j	80000298 <main+0x70>
    80000254:	00000717          	auipc	a4,0x0
    80000258:	5dc70713          	add	a4,a4,1500 # 80000830 <a>
    8000025c:	fec42783          	lw	a5,-20(s0)
    80000260:	00279793          	sll	a5,a5,0x2
    80000264:	00f707b3          	add	a5,a4,a5
    80000268:	0007a703          	lw	a4,0(a5)
    8000026c:	fec42783          	lw	a5,-20(s0)
    80000270:	0007879b          	sext.w	a5,a5
    80000274:	40e787b3          	sub	a5,a5,a4
    80000278:	0017b793          	seqz	a5,a5
    8000027c:	0ff7f793          	zext.b	a5,a5
    80000280:	0007879b          	sext.w	a5,a5
    80000284:	00078513          	mv	a0,a5
    80000288:	0f0000ef          	jal	80000378 <assert>
    8000028c:	fec42783          	lw	a5,-20(s0)
    80000290:	0017879b          	addw	a5,a5,1
    80000294:	fef42623          	sw	a5,-20(s0)
    80000298:	fec42783          	lw	a5,-20(s0)
    8000029c:	0007871b          	sext.w	a4,a5
    800002a0:	01300793          	li	a5,19
    800002a4:	fae7d8e3          	bge	a5,a4,80000254 <main+0x2c>
    800002a8:	fec42783          	lw	a5,-20(s0)
    800002ac:	0007871b          	sext.w	a4,a5
    800002b0:	01400793          	li	a5,20
    800002b4:	40f707b3          	sub	a5,a4,a5
    800002b8:	0017b793          	seqz	a5,a5
    800002bc:	0ff7f793          	zext.b	a5,a5
    800002c0:	0007879b          	sext.w	a5,a5
    800002c4:	00078513          	mv	a0,a5
    800002c8:	0b0000ef          	jal	80000378 <assert>
    800002cc:	01300613          	li	a2,19
    800002d0:	00000593          	li	a1,0
    800002d4:	00000517          	auipc	a0,0x0
    800002d8:	55c50513          	add	a0,a0,1372 # 80000830 <a>
    800002dc:	e95ff0ef          	jal	80000170 <quick_sort>
    800002e0:	fe042623          	sw	zero,-20(s0)
    800002e4:	0480006f          	j	8000032c <main+0x104>
    800002e8:	00000717          	auipc	a4,0x0
    800002ec:	54870713          	add	a4,a4,1352 # 80000830 <a>
    800002f0:	fec42783          	lw	a5,-20(s0)
    800002f4:	00279793          	sll	a5,a5,0x2
    800002f8:	00f707b3          	add	a5,a4,a5
    800002fc:	0007a703          	lw	a4,0(a5)
    80000300:	fec42783          	lw	a5,-20(s0)
    80000304:	0007879b          	sext.w	a5,a5
    80000308:	40e787b3          	sub	a5,a5,a4
    8000030c:	0017b793          	seqz	a5,a5
    80000310:	0ff7f793          	zext.b	a5,a5
    80000314:	0007879b          	sext.w	a5,a5
    80000318:	00078513          	mv	a0,a5
    8000031c:	05c000ef          	jal	80000378 <assert>
    80000320:	fec42783          	lw	a5,-20(s0)
    80000324:	0017879b          	addw	a5,a5,1
    80000328:	fef42623          	sw	a5,-20(s0)
    8000032c:	fec42783          	lw	a5,-20(s0)
    80000330:	0007871b          	sext.w	a4,a5
    80000334:	01300793          	li	a5,19
    80000338:	fae7d8e3          	bge	a5,a4,800002e8 <main+0xc0>
    8000033c:	fec42783          	lw	a5,-20(s0)
    80000340:	0007871b          	sext.w	a4,a5
    80000344:	01400793          	li	a5,20
    80000348:	40f707b3          	sub	a5,a4,a5
    8000034c:	0017b793          	seqz	a5,a5
    80000350:	0ff7f793          	zext.b	a5,a5
    80000354:	0007879b          	sext.w	a5,a5
    80000358:	00078513          	mv	a0,a5
    8000035c:	01c000ef          	jal	80000378 <assert>
    80000360:	00000793          	li	a5,0
    80000364:	00078513          	mv	a0,a5
    80000368:	01813083          	ld	ra,24(sp)
    8000036c:	01013403          	ld	s0,16(sp)
    80000370:	02010113          	add	sp,sp,32
    80000374:	00008067          	ret

0000000080000378 <assert>:
    80000378:	fe010113          	add	sp,sp,-32
    8000037c:	00113c23          	sd	ra,24(sp)
    80000380:	00813823          	sd	s0,16(sp)
    80000384:	02010413          	add	s0,sp,32
    80000388:	00050793          	mv	a5,a0
    8000038c:	fef42623          	sw	a5,-20(s0)
    80000390:	fec42783          	lw	a5,-20(s0)
    80000394:	0007879b          	sext.w	a5,a5
    80000398:	00079663          	bnez	a5,800003a4 <assert+0x2c>
    8000039c:	00100513          	li	a0,1
    800003a0:	018000ef          	jal	800003b8 <_exit>
    800003a4:	00000013          	nop
    800003a8:	01813083          	ld	ra,24(sp)
    800003ac:	01013403          	ld	s0,16(sp)
    800003b0:	02010113          	add	sp,sp,32
    800003b4:	00008067          	ret

00000000800003b8 <_exit>:
    800003b8:	fe010113          	add	sp,sp,-32
    800003bc:	00113c23          	sd	ra,24(sp)
    800003c0:	00813823          	sd	s0,16(sp)
    800003c4:	02010413          	add	s0,sp,32
    800003c8:	00050793          	mv	a5,a0
    800003cc:	fef42623          	sw	a5,-20(s0)
    800003d0:	420000ef          	jal	800007f0 <htif_poweroff>

00000000800003d4 <console_putchar>:
    800003d4:	fe010113          	add	sp,sp,-32
    800003d8:	00113c23          	sd	ra,24(sp)
    800003dc:	00813823          	sd	s0,16(sp)
    800003e0:	02010413          	add	s0,sp,32
    800003e4:	00050793          	mv	a5,a0
    800003e8:	fef407a3          	sb	a5,-17(s0)
    800003ec:	fef44783          	lbu	a5,-17(s0)
    800003f0:	0007879b          	sext.w	a5,a5
    800003f4:	00078513          	mv	a0,a5
    800003f8:	018000ef          	jal	80000410 <uart_write>
    800003fc:	00000013          	nop
    80000400:	01813083          	ld	ra,24(sp)
    80000404:	01013403          	ld	s0,16(sp)
    80000408:	02010113          	add	sp,sp,32
    8000040c:	00008067          	ret

0000000080000410 <uart_write>:
    80000410:	fe010113          	add	sp,sp,-32
    80000414:	00113c23          	sd	ra,24(sp)
    80000418:	00813823          	sd	s0,16(sp)
    8000041c:	02010413          	add	s0,sp,32
    80000420:	00050793          	mv	a5,a0
    80000424:	fef407a3          	sb	a5,-17(s0)
    80000428:	fef44783          	lbu	a5,-17(s0)
    8000042c:	00078513          	mv	a0,a5
    80000430:	368000ef          	jal	80000798 <htif_console_putchar>
    80000434:	00000013          	nop
    80000438:	01813083          	ld	ra,24(sp)
    8000043c:	01013403          	ld	s0,16(sp)
    80000440:	02010113          	add	sp,sp,32
    80000444:	00008067          	ret

0000000080000448 <spinlock_trylock>:
    80000448:	fd010113          	add	sp,sp,-48
    8000044c:	02813423          	sd	s0,40(sp)
    80000450:	03010413          	add	s0,sp,48
    80000454:	fca43c23          	sd	a0,-40(s0)
    80000458:	fd843783          	ld	a5,-40(s0)
    8000045c:	fff00713          	li	a4,-1
    80000460:	0ce7a72f          	amoswap.w.aq	a4,a4,(a5)
    80000464:	0007079b          	sext.w	a5,a4
    80000468:	fef42623          	sw	a5,-20(s0)
    8000046c:	0ff0000f          	fence
    80000470:	fec42783          	lw	a5,-20(s0)
    80000474:	00078513          	mv	a0,a5
    80000478:	02813403          	ld	s0,40(sp)
    8000047c:	03010113          	add	sp,sp,48
    80000480:	00008067          	ret

0000000080000484 <spinlock_lock>:
    80000484:	fe010113          	add	sp,sp,-32
    80000488:	00113c23          	sd	ra,24(sp)
    8000048c:	00813823          	sd	s0,16(sp)
    80000490:	02010413          	add	s0,sp,32
    80000494:	fea43423          	sd	a0,-24(s0)
    80000498:	00000013          	nop
    8000049c:	fe843783          	ld	a5,-24(s0)
    800004a0:	0007a783          	lw	a5,0(a5)
    800004a4:	0007879b          	sext.w	a5,a5
    800004a8:	fe079ae3          	bnez	a5,8000049c <spinlock_lock+0x18>
    800004ac:	fe843503          	ld	a0,-24(s0)
    800004b0:	f99ff0ef          	jal	80000448 <spinlock_trylock>
    800004b4:	00050793          	mv	a5,a0
    800004b8:	fe0790e3          	bnez	a5,80000498 <spinlock_lock+0x14>
    800004bc:	00000013          	nop
    800004c0:	00000013          	nop
    800004c4:	01813083          	ld	ra,24(sp)
    800004c8:	01013403          	ld	s0,16(sp)
    800004cc:	02010113          	add	sp,sp,32
    800004d0:	00008067          	ret

00000000800004d4 <spinlock_unlock>:
    800004d4:	fe010113          	add	sp,sp,-32
    800004d8:	00813c23          	sd	s0,24(sp)
    800004dc:	02010413          	add	s0,sp,32
    800004e0:	fea43423          	sd	a0,-24(s0)
    800004e4:	0ff0000f          	fence
    800004e8:	fe843783          	ld	a5,-24(s0)
    800004ec:	0007a023          	sw	zero,0(a5)
    800004f0:	00000013          	nop
    800004f4:	01813403          	ld	s0,24(sp)
    800004f8:	02010113          	add	sp,sp,32
    800004fc:	00008067          	ret

0000000080000500 <__check_fromhost>:
    80000500:	fe010113          	add	sp,sp,-32
    80000504:	00113c23          	sd	ra,24(sp)
    80000508:	00813823          	sd	s0,16(sp)
    8000050c:	02010413          	add	s0,sp,32
    80000510:	00000797          	auipc	a5,0x0
    80000514:	31878793          	add	a5,a5,792 # 80000828 <fromhost>
    80000518:	0007b783          	ld	a5,0(a5)
    8000051c:	fef43423          	sd	a5,-24(s0)
    80000520:	fe843783          	ld	a5,-24(s0)
    80000524:	06078e63          	beqz	a5,800005a0 <__check_fromhost+0xa0>
    80000528:	00000797          	auipc	a5,0x0
    8000052c:	30078793          	add	a5,a5,768 # 80000828 <fromhost>
    80000530:	0007b023          	sd	zero,0(a5)
    80000534:	fe843783          	ld	a5,-24(s0)
    80000538:	0387d793          	srl	a5,a5,0x38
    8000053c:	fff78793          	add	a5,a5,-1
    80000540:	0017b793          	seqz	a5,a5
    80000544:	0ff7f793          	zext.b	a5,a5
    80000548:	0007879b          	sext.w	a5,a5
    8000054c:	00078513          	mv	a0,a5
    80000550:	e29ff0ef          	jal	80000378 <assert>
    80000554:	fe843783          	ld	a5,-24(s0)
    80000558:	00879793          	sll	a5,a5,0x8
    8000055c:	0387d793          	srl	a5,a5,0x38
    80000560:	00078863          	beqz	a5,80000570 <__check_fromhost+0x70>
    80000564:	00100713          	li	a4,1
    80000568:	04e78063          	beq	a5,a4,800005a8 <__check_fromhost+0xa8>
    8000056c:	0280006f          	j	80000594 <__check_fromhost+0x94>
    80000570:	fe843783          	ld	a5,-24(s0)
    80000574:	0ff7f793          	zext.b	a5,a5
    80000578:	0007879b          	sext.w	a5,a5
    8000057c:	0017879b          	addw	a5,a5,1
    80000580:	0007871b          	sext.w	a4,a5
    80000584:	00000797          	auipc	a5,0x0
    80000588:	2fc78793          	add	a5,a5,764 # 80000880 <htif_console_buf>
    8000058c:	00e7a023          	sw	a4,0(a5)
    80000590:	01c0006f          	j	800005ac <__check_fromhost+0xac>
    80000594:	00000513          	li	a0,0
    80000598:	de1ff0ef          	jal	80000378 <assert>
    8000059c:	0100006f          	j	800005ac <__check_fromhost+0xac>
    800005a0:	00000013          	nop
    800005a4:	0080006f          	j	800005ac <__check_fromhost+0xac>
    800005a8:	00000013          	nop
    800005ac:	01813083          	ld	ra,24(sp)
    800005b0:	01013403          	ld	s0,16(sp)
    800005b4:	02010113          	add	sp,sp,32
    800005b8:	00008067          	ret

00000000800005bc <__set_tohost>:
    800005bc:	fd010113          	add	sp,sp,-48
    800005c0:	02113423          	sd	ra,40(sp)
    800005c4:	02813023          	sd	s0,32(sp)
    800005c8:	03010413          	add	s0,sp,48
    800005cc:	fea43423          	sd	a0,-24(s0)
    800005d0:	feb43023          	sd	a1,-32(s0)
    800005d4:	fcc43c23          	sd	a2,-40(s0)
    800005d8:	0080006f          	j	800005e0 <__set_tohost+0x24>
    800005dc:	f25ff0ef          	jal	80000500 <__check_fromhost>
    800005e0:	00000797          	auipc	a5,0x0
    800005e4:	24078793          	add	a5,a5,576 # 80000820 <_etext>
    800005e8:	0007b783          	ld	a5,0(a5)
    800005ec:	fe0798e3          	bnez	a5,800005dc <__set_tohost+0x20>
    800005f0:	fe843783          	ld	a5,-24(s0)
    800005f4:	03879713          	sll	a4,a5,0x38
    800005f8:	fe043783          	ld	a5,-32(s0)
    800005fc:	03079793          	sll	a5,a5,0x30
    80000600:	00f76733          	or	a4,a4,a5
    80000604:	fd843783          	ld	a5,-40(s0)
    80000608:	00f76733          	or	a4,a4,a5
    8000060c:	00000797          	auipc	a5,0x0
    80000610:	21478793          	add	a5,a5,532 # 80000820 <_etext>
    80000614:	00e7b023          	sd	a4,0(a5)
    80000618:	00000013          	nop
    8000061c:	02813083          	ld	ra,40(sp)
    80000620:	02013403          	ld	s0,32(sp)
    80000624:	03010113          	add	sp,sp,48
    80000628:	00008067          	ret

000000008000062c <htif_console_getchar>:
    8000062c:	fe010113          	add	sp,sp,-32
    80000630:	00113c23          	sd	ra,24(sp)
    80000634:	00813823          	sd	s0,16(sp)
    80000638:	02010413          	add	s0,sp,32
    8000063c:	00000517          	auipc	a0,0x0
    80000640:	24c50513          	add	a0,a0,588 # 80000888 <htif_lock>
    80000644:	e41ff0ef          	jal	80000484 <spinlock_lock>
    80000648:	eb9ff0ef          	jal	80000500 <__check_fromhost>
    8000064c:	00000797          	auipc	a5,0x0
    80000650:	23478793          	add	a5,a5,564 # 80000880 <htif_console_buf>
    80000654:	0007a783          	lw	a5,0(a5)
    80000658:	fef42623          	sw	a5,-20(s0)
    8000065c:	fec42783          	lw	a5,-20(s0)
    80000660:	0007879b          	sext.w	a5,a5
    80000664:	0207c263          	bltz	a5,80000688 <htif_console_getchar+0x5c>
    80000668:	00000797          	auipc	a5,0x0
    8000066c:	21878793          	add	a5,a5,536 # 80000880 <htif_console_buf>
    80000670:	fff00713          	li	a4,-1
    80000674:	00e7a023          	sw	a4,0(a5)
    80000678:	00000613          	li	a2,0
    8000067c:	00000593          	li	a1,0
    80000680:	00100513          	li	a0,1
    80000684:	f39ff0ef          	jal	800005bc <__set_tohost>
    80000688:	00000517          	auipc	a0,0x0
    8000068c:	20050513          	add	a0,a0,512 # 80000888 <htif_lock>
    80000690:	e45ff0ef          	jal	800004d4 <spinlock_unlock>
    80000694:	fec42783          	lw	a5,-20(s0)
    80000698:	fff7879b          	addw	a5,a5,-1
    8000069c:	0007879b          	sext.w	a5,a5
    800006a0:	00078513          	mv	a0,a5
    800006a4:	01813083          	ld	ra,24(sp)
    800006a8:	01013403          	ld	s0,16(sp)
    800006ac:	02010113          	add	sp,sp,32
    800006b0:	00008067          	ret

00000000800006b4 <do_tohost_fromhost>:
    800006b4:	fc010113          	add	sp,sp,-64
    800006b8:	02113c23          	sd	ra,56(sp)
    800006bc:	02813823          	sd	s0,48(sp)
    800006c0:	04010413          	add	s0,sp,64
    800006c4:	fca43c23          	sd	a0,-40(s0)
    800006c8:	fcb43823          	sd	a1,-48(s0)
    800006cc:	fcc43423          	sd	a2,-56(s0)
    800006d0:	00000517          	auipc	a0,0x0
    800006d4:	1b850513          	add	a0,a0,440 # 80000888 <htif_lock>
    800006d8:	dadff0ef          	jal	80000484 <spinlock_lock>
    800006dc:	fc843603          	ld	a2,-56(s0)
    800006e0:	fd043583          	ld	a1,-48(s0)
    800006e4:	fd843503          	ld	a0,-40(s0)
    800006e8:	ed5ff0ef          	jal	800005bc <__set_tohost>
    800006ec:	00000797          	auipc	a5,0x0
    800006f0:	13c78793          	add	a5,a5,316 # 80000828 <fromhost>
    800006f4:	0007b783          	ld	a5,0(a5)
    800006f8:	fef43423          	sd	a5,-24(s0)
    800006fc:	fe843783          	ld	a5,-24(s0)
    80000700:	fe0786e3          	beqz	a5,800006ec <do_tohost_fromhost+0x38>
    80000704:	fe843783          	ld	a5,-24(s0)
    80000708:	0387d793          	srl	a5,a5,0x38
    8000070c:	fd843703          	ld	a4,-40(s0)
    80000710:	02f71463          	bne	a4,a5,80000738 <do_tohost_fromhost+0x84>
    80000714:	fe843783          	ld	a5,-24(s0)
    80000718:	00879793          	sll	a5,a5,0x8
    8000071c:	0387d793          	srl	a5,a5,0x38
    80000720:	fd043703          	ld	a4,-48(s0)
    80000724:	00f71a63          	bne	a4,a5,80000738 <do_tohost_fromhost+0x84>
    80000728:	00000797          	auipc	a5,0x0
    8000072c:	10078793          	add	a5,a5,256 # 80000828 <fromhost>
    80000730:	0007b023          	sd	zero,0(a5)
    80000734:	00c0006f          	j	80000740 <do_tohost_fromhost+0x8c>
    80000738:	dc9ff0ef          	jal	80000500 <__check_fromhost>
    8000073c:	fb1ff06f          	j	800006ec <do_tohost_fromhost+0x38>
    80000740:	00000517          	auipc	a0,0x0
    80000744:	14850513          	add	a0,a0,328 # 80000888 <htif_lock>
    80000748:	d8dff0ef          	jal	800004d4 <spinlock_unlock>
    8000074c:	00000013          	nop
    80000750:	03813083          	ld	ra,56(sp)
    80000754:	03013403          	ld	s0,48(sp)
    80000758:	04010113          	add	sp,sp,64
    8000075c:	00008067          	ret

0000000080000760 <htif_syscall>:
    80000760:	fe010113          	add	sp,sp,-32
    80000764:	00113c23          	sd	ra,24(sp)
    80000768:	00813823          	sd	s0,16(sp)
    8000076c:	02010413          	add	s0,sp,32
    80000770:	fea43423          	sd	a0,-24(s0)
    80000774:	fe843603          	ld	a2,-24(s0)
    80000778:	00000593          	li	a1,0
    8000077c:	00000513          	li	a0,0
    80000780:	f35ff0ef          	jal	800006b4 <do_tohost_fromhost>
    80000784:	00000013          	nop
    80000788:	01813083          	ld	ra,24(sp)
    8000078c:	01013403          	ld	s0,16(sp)
    80000790:	02010113          	add	sp,sp,32
    80000794:	00008067          	ret

0000000080000798 <htif_console_putchar>:
    80000798:	fe010113          	add	sp,sp,-32
    8000079c:	00113c23          	sd	ra,24(sp)
    800007a0:	00813823          	sd	s0,16(sp)
    800007a4:	02010413          	add	s0,sp,32
    800007a8:	00050793          	mv	a5,a0
    800007ac:	fef407a3          	sb	a5,-17(s0)
    800007b0:	00000517          	auipc	a0,0x0
    800007b4:	0d850513          	add	a0,a0,216 # 80000888 <htif_lock>
    800007b8:	ccdff0ef          	jal	80000484 <spinlock_lock>
    800007bc:	fef44783          	lbu	a5,-17(s0)
    800007c0:	00078613          	mv	a2,a5
    800007c4:	00100593          	li	a1,1
    800007c8:	00100513          	li	a0,1
    800007cc:	df1ff0ef          	jal	800005bc <__set_tohost>
    800007d0:	00000517          	auipc	a0,0x0
    800007d4:	0b850513          	add	a0,a0,184 # 80000888 <htif_lock>
    800007d8:	cfdff0ef          	jal	800004d4 <spinlock_unlock>
    800007dc:	00000013          	nop
    800007e0:	01813083          	ld	ra,24(sp)
    800007e4:	01013403          	ld	s0,16(sp)
    800007e8:	02010113          	add	sp,sp,32
    800007ec:	00008067          	ret

00000000800007f0 <htif_poweroff>:
    800007f0:	ff010113          	add	sp,sp,-16
    800007f4:	00813423          	sd	s0,8(sp)
    800007f8:	01010413          	add	s0,sp,16
    800007fc:	00000797          	auipc	a5,0x0
    80000800:	02c78793          	add	a5,a5,44 # 80000828 <fromhost>
    80000804:	0007b023          	sd	zero,0(a5)
    80000808:	00000797          	auipc	a5,0x0
    8000080c:	01878793          	add	a5,a5,24 # 80000820 <_etext>
    80000810:	00100713          	li	a4,1
    80000814:	00e7b023          	sd	a4,0(a5)
    80000818:	00000013          	nop
    8000081c:	fe1ff06f          	j	800007fc <htif_poweroff+0xc>
