
/home/asker/szu-lab/lab-test/tests/futest/cputest/build/./spike/recursion-spike.elf:     file format elf64-littleriscv


Disassembly of section .text:

0000000080000000 <f0>:
    80000000:	fe010113          	add	sp,sp,-32
    80000004:	00113c23          	sd	ra,24(sp)
    80000008:	00813823          	sd	s0,16(sp)
    8000000c:	02010413          	add	s0,sp,32
    80000010:	00050793          	mv	a5,a0
    80000014:	00058713          	mv	a4,a1
    80000018:	fef42623          	sw	a5,-20(s0)
    8000001c:	00070793          	mv	a5,a4
    80000020:	fef42423          	sw	a5,-24(s0)
    80000024:	00001797          	auipc	a5,0x1
    80000028:	93878793          	add	a5,a5,-1736 # 8000095c <lvl>
    8000002c:	0007a703          	lw	a4,0(a5)
    80000030:	fe842783          	lw	a5,-24(s0)
    80000034:	0007879b          	sext.w	a5,a5
    80000038:	00f75a63          	bge	a4,a5,8000004c <f0+0x4c>
    8000003c:	00001797          	auipc	a5,0x1
    80000040:	92078793          	add	a5,a5,-1760 # 8000095c <lvl>
    80000044:	fe842703          	lw	a4,-24(s0)
    80000048:	00e7a023          	sw	a4,0(a5)
    8000004c:	00001797          	auipc	a5,0x1
    80000050:	90c78793          	add	a5,a5,-1780 # 80000958 <rec>
    80000054:	0007a783          	lw	a5,0(a5)
    80000058:	0017879b          	addw	a5,a5,1
    8000005c:	0007871b          	sext.w	a4,a5
    80000060:	00001797          	auipc	a5,0x1
    80000064:	8f878793          	add	a5,a5,-1800 # 80000958 <rec>
    80000068:	00e7a023          	sw	a4,0(a5)
    8000006c:	fec42783          	lw	a5,-20(s0)
    80000070:	0007879b          	sext.w	a5,a5
    80000074:	04f05263          	blez	a5,800000b8 <f0+0xb8>
    80000078:	00001797          	auipc	a5,0x1
    8000007c:	8b078793          	add	a5,a5,-1872 # 80000928 <func>
    80000080:	0187b783          	ld	a5,24(a5)
    80000084:	fec42703          	lw	a4,-20(s0)
    80000088:	00070693          	mv	a3,a4
    8000008c:	00300713          	li	a4,3
    80000090:	02e6c73b          	divw	a4,a3,a4
    80000094:	0007071b          	sext.w	a4,a4
    80000098:	fe842683          	lw	a3,-24(s0)
    8000009c:	0016869b          	addw	a3,a3,1
    800000a0:	0006869b          	sext.w	a3,a3
    800000a4:	00068593          	mv	a1,a3
    800000a8:	00070513          	mv	a0,a4
    800000ac:	000780e7          	jalr	a5
    800000b0:	00050793          	mv	a5,a0
    800000b4:	0080006f          	j	800000bc <f0+0xbc>
    800000b8:	00100793          	li	a5,1
    800000bc:	00078513          	mv	a0,a5
    800000c0:	01813083          	ld	ra,24(sp)
    800000c4:	01013403          	ld	s0,16(sp)
    800000c8:	02010113          	add	sp,sp,32
    800000cc:	00008067          	ret

00000000800000d0 <f1>:
    800000d0:	fe010113          	add	sp,sp,-32
    800000d4:	00113c23          	sd	ra,24(sp)
    800000d8:	00813823          	sd	s0,16(sp)
    800000dc:	02010413          	add	s0,sp,32
    800000e0:	00050793          	mv	a5,a0
    800000e4:	00058713          	mv	a4,a1
    800000e8:	fef42623          	sw	a5,-20(s0)
    800000ec:	00070793          	mv	a5,a4
    800000f0:	fef42423          	sw	a5,-24(s0)
    800000f4:	00001797          	auipc	a5,0x1
    800000f8:	86878793          	add	a5,a5,-1944 # 8000095c <lvl>
    800000fc:	0007a703          	lw	a4,0(a5)
    80000100:	fe842783          	lw	a5,-24(s0)
    80000104:	0007879b          	sext.w	a5,a5
    80000108:	00f75a63          	bge	a4,a5,8000011c <f1+0x4c>
    8000010c:	00001797          	auipc	a5,0x1
    80000110:	85078793          	add	a5,a5,-1968 # 8000095c <lvl>
    80000114:	fe842703          	lw	a4,-24(s0)
    80000118:	00e7a023          	sw	a4,0(a5)
    8000011c:	00001797          	auipc	a5,0x1
    80000120:	83c78793          	add	a5,a5,-1988 # 80000958 <rec>
    80000124:	0007a783          	lw	a5,0(a5)
    80000128:	0017879b          	addw	a5,a5,1
    8000012c:	0007871b          	sext.w	a4,a5
    80000130:	00001797          	auipc	a5,0x1
    80000134:	82878793          	add	a5,a5,-2008 # 80000958 <rec>
    80000138:	00e7a023          	sw	a4,0(a5)
    8000013c:	fec42783          	lw	a5,-20(s0)
    80000140:	0007879b          	sext.w	a5,a5
    80000144:	02f05e63          	blez	a5,80000180 <f1+0xb0>
    80000148:	00000797          	auipc	a5,0x0
    8000014c:	7e078793          	add	a5,a5,2016 # 80000928 <func>
    80000150:	0007b783          	ld	a5,0(a5)
    80000154:	fec42703          	lw	a4,-20(s0)
    80000158:	fff7071b          	addw	a4,a4,-1
    8000015c:	0007071b          	sext.w	a4,a4
    80000160:	fe842683          	lw	a3,-24(s0)
    80000164:	0016869b          	addw	a3,a3,1
    80000168:	0006869b          	sext.w	a3,a3
    8000016c:	00068593          	mv	a1,a3
    80000170:	00070513          	mv	a0,a4
    80000174:	000780e7          	jalr	a5
    80000178:	00050793          	mv	a5,a0
    8000017c:	0080006f          	j	80000184 <f1+0xb4>
    80000180:	00100793          	li	a5,1
    80000184:	00078513          	mv	a0,a5
    80000188:	01813083          	ld	ra,24(sp)
    8000018c:	01013403          	ld	s0,16(sp)
    80000190:	02010113          	add	sp,sp,32
    80000194:	00008067          	ret

0000000080000198 <f2>:
    80000198:	fe010113          	add	sp,sp,-32
    8000019c:	00113c23          	sd	ra,24(sp)
    800001a0:	00813823          	sd	s0,16(sp)
    800001a4:	02010413          	add	s0,sp,32
    800001a8:	00050793          	mv	a5,a0
    800001ac:	00058713          	mv	a4,a1
    800001b0:	fef42623          	sw	a5,-20(s0)
    800001b4:	00070793          	mv	a5,a4
    800001b8:	fef42423          	sw	a5,-24(s0)
    800001bc:	00000797          	auipc	a5,0x0
    800001c0:	7a078793          	add	a5,a5,1952 # 8000095c <lvl>
    800001c4:	0007a703          	lw	a4,0(a5)
    800001c8:	fe842783          	lw	a5,-24(s0)
    800001cc:	0007879b          	sext.w	a5,a5
    800001d0:	00f75a63          	bge	a4,a5,800001e4 <f2+0x4c>
    800001d4:	00000797          	auipc	a5,0x0
    800001d8:	78878793          	add	a5,a5,1928 # 8000095c <lvl>
    800001dc:	fe842703          	lw	a4,-24(s0)
    800001e0:	00e7a023          	sw	a4,0(a5)
    800001e4:	00000797          	auipc	a5,0x0
    800001e8:	77478793          	add	a5,a5,1908 # 80000958 <rec>
    800001ec:	0007a783          	lw	a5,0(a5)
    800001f0:	0017879b          	addw	a5,a5,1
    800001f4:	0007871b          	sext.w	a4,a5
    800001f8:	00000797          	auipc	a5,0x0
    800001fc:	76078793          	add	a5,a5,1888 # 80000958 <rec>
    80000200:	00e7a023          	sw	a4,0(a5)
    80000204:	fec42783          	lw	a5,-20(s0)
    80000208:	0007879b          	sext.w	a5,a5
    8000020c:	02f05e63          	blez	a5,80000248 <f2+0xb0>
    80000210:	00000797          	auipc	a5,0x0
    80000214:	71878793          	add	a5,a5,1816 # 80000928 <func>
    80000218:	0087b783          	ld	a5,8(a5)
    8000021c:	fe842703          	lw	a4,-24(s0)
    80000220:	0017071b          	addw	a4,a4,1
    80000224:	0007069b          	sext.w	a3,a4
    80000228:	fec42703          	lw	a4,-20(s0)
    8000022c:	00068593          	mv	a1,a3
    80000230:	00070513          	mv	a0,a4
    80000234:	000780e7          	jalr	a5
    80000238:	00050793          	mv	a5,a0
    8000023c:	0097879b          	addw	a5,a5,9
    80000240:	0007879b          	sext.w	a5,a5
    80000244:	0080006f          	j	8000024c <f2+0xb4>
    80000248:	00100793          	li	a5,1
    8000024c:	00078513          	mv	a0,a5
    80000250:	01813083          	ld	ra,24(sp)
    80000254:	01013403          	ld	s0,16(sp)
    80000258:	02010113          	add	sp,sp,32
    8000025c:	00008067          	ret

0000000080000260 <f3>:
    80000260:	fd010113          	add	sp,sp,-48
    80000264:	02113423          	sd	ra,40(sp)
    80000268:	02813023          	sd	s0,32(sp)
    8000026c:	00913c23          	sd	s1,24(sp)
    80000270:	03010413          	add	s0,sp,48
    80000274:	00050793          	mv	a5,a0
    80000278:	00058713          	mv	a4,a1
    8000027c:	fcf42e23          	sw	a5,-36(s0)
    80000280:	00070793          	mv	a5,a4
    80000284:	fcf42c23          	sw	a5,-40(s0)
    80000288:	00000797          	auipc	a5,0x0
    8000028c:	6d478793          	add	a5,a5,1748 # 8000095c <lvl>
    80000290:	0007a703          	lw	a4,0(a5)
    80000294:	fd842783          	lw	a5,-40(s0)
    80000298:	0007879b          	sext.w	a5,a5
    8000029c:	00f75a63          	bge	a4,a5,800002b0 <f3+0x50>
    800002a0:	00000797          	auipc	a5,0x0
    800002a4:	6bc78793          	add	a5,a5,1724 # 8000095c <lvl>
    800002a8:	fd842703          	lw	a4,-40(s0)
    800002ac:	00e7a023          	sw	a4,0(a5)
    800002b0:	00000797          	auipc	a5,0x0
    800002b4:	6a878793          	add	a5,a5,1704 # 80000958 <rec>
    800002b8:	0007a783          	lw	a5,0(a5)
    800002bc:	0017879b          	addw	a5,a5,1
    800002c0:	0007871b          	sext.w	a4,a5
    800002c4:	00000797          	auipc	a5,0x0
    800002c8:	69478793          	add	a5,a5,1684 # 80000958 <rec>
    800002cc:	00e7a023          	sw	a4,0(a5)
    800002d0:	fdc42783          	lw	a5,-36(s0)
    800002d4:	0007879b          	sext.w	a5,a5
    800002d8:	0af05263          	blez	a5,8000037c <f3+0x11c>
    800002dc:	00000797          	auipc	a5,0x0
    800002e0:	64c78793          	add	a5,a5,1612 # 80000928 <func>
    800002e4:	0107b703          	ld	a4,16(a5)
    800002e8:	fdc42783          	lw	a5,-36(s0)
    800002ec:	01f7d69b          	srlw	a3,a5,0x1f
    800002f0:	00f687bb          	addw	a5,a3,a5
    800002f4:	4017d79b          	sraw	a5,a5,0x1
    800002f8:	0007879b          	sext.w	a5,a5
    800002fc:	fd842683          	lw	a3,-40(s0)
    80000300:	0016869b          	addw	a3,a3,1
    80000304:	0006869b          	sext.w	a3,a3
    80000308:	00068593          	mv	a1,a3
    8000030c:	00078513          	mv	a0,a5
    80000310:	000700e7          	jalr	a4
    80000314:	00050793          	mv	a5,a0
    80000318:	00078713          	mv	a4,a5
    8000031c:	00070793          	mv	a5,a4
    80000320:	0017979b          	sllw	a5,a5,0x1
    80000324:	00e787bb          	addw	a5,a5,a4
    80000328:	0007849b          	sext.w	s1,a5
    8000032c:	00000797          	auipc	a5,0x0
    80000330:	5fc78793          	add	a5,a5,1532 # 80000928 <func>
    80000334:	0107b703          	ld	a4,16(a5)
    80000338:	fdc42783          	lw	a5,-36(s0)
    8000033c:	01f7d69b          	srlw	a3,a5,0x1f
    80000340:	00f687bb          	addw	a5,a3,a5
    80000344:	4017d79b          	sraw	a5,a5,0x1
    80000348:	0007879b          	sext.w	a5,a5
    8000034c:	fd842683          	lw	a3,-40(s0)
    80000350:	0016869b          	addw	a3,a3,1
    80000354:	0006869b          	sext.w	a3,a3
    80000358:	00068593          	mv	a1,a3
    8000035c:	00078513          	mv	a0,a5
    80000360:	000700e7          	jalr	a4
    80000364:	00050793          	mv	a5,a0
    80000368:	0017979b          	sllw	a5,a5,0x1
    8000036c:	0007879b          	sext.w	a5,a5
    80000370:	00f487bb          	addw	a5,s1,a5
    80000374:	0007879b          	sext.w	a5,a5
    80000378:	0080006f          	j	80000380 <f3+0x120>
    8000037c:	00100793          	li	a5,1
    80000380:	00078513          	mv	a0,a5
    80000384:	02813083          	ld	ra,40(sp)
    80000388:	02013403          	ld	s0,32(sp)
    8000038c:	01813483          	ld	s1,24(sp)
    80000390:	03010113          	add	sp,sp,48
    80000394:	00008067          	ret

0000000080000398 <main>:
    80000398:	fe010113          	add	sp,sp,-32
    8000039c:	00113c23          	sd	ra,24(sp)
    800003a0:	00813823          	sd	s0,16(sp)
    800003a4:	02010413          	add	s0,sp,32
    800003a8:	00000797          	auipc	a5,0x0
    800003ac:	58078793          	add	a5,a5,1408 # 80000928 <func>
    800003b0:	0007b783          	ld	a5,0(a5)
    800003b4:	00000593          	li	a1,0
    800003b8:	00004737          	lui	a4,0x4
    800003bc:	82370513          	add	a0,a4,-2013 # 3823 <f0-0x7fffc7dd>
    800003c0:	000780e7          	jalr	a5
    800003c4:	00050793          	mv	a5,a0
    800003c8:	fef42623          	sw	a5,-20(s0)
    800003cc:	00000797          	auipc	a5,0x0
    800003d0:	57c78793          	add	a5,a5,1404 # 80000948 <ans>
    800003d4:	0007a703          	lw	a4,0(a5)
    800003d8:	fec42783          	lw	a5,-20(s0)
    800003dc:	0007879b          	sext.w	a5,a5
    800003e0:	40e787b3          	sub	a5,a5,a4
    800003e4:	0017b793          	seqz	a5,a5
    800003e8:	0ff7f793          	zext.b	a5,a5
    800003ec:	0007879b          	sext.w	a5,a5
    800003f0:	00078513          	mv	a0,a5
    800003f4:	07c000ef          	jal	80000470 <assert>
    800003f8:	00000797          	auipc	a5,0x0
    800003fc:	55078793          	add	a5,a5,1360 # 80000948 <ans>
    80000400:	0047a703          	lw	a4,4(a5)
    80000404:	00000797          	auipc	a5,0x0
    80000408:	55478793          	add	a5,a5,1364 # 80000958 <rec>
    8000040c:	0007a783          	lw	a5,0(a5)
    80000410:	40f707b3          	sub	a5,a4,a5
    80000414:	0017b793          	seqz	a5,a5
    80000418:	0ff7f793          	zext.b	a5,a5
    8000041c:	0007879b          	sext.w	a5,a5
    80000420:	00078513          	mv	a0,a5
    80000424:	04c000ef          	jal	80000470 <assert>
    80000428:	00000797          	auipc	a5,0x0
    8000042c:	52078793          	add	a5,a5,1312 # 80000948 <ans>
    80000430:	0087a703          	lw	a4,8(a5)
    80000434:	00000797          	auipc	a5,0x0
    80000438:	52878793          	add	a5,a5,1320 # 8000095c <lvl>
    8000043c:	0007a783          	lw	a5,0(a5)
    80000440:	40f707b3          	sub	a5,a4,a5
    80000444:	0017b793          	seqz	a5,a5
    80000448:	0ff7f793          	zext.b	a5,a5
    8000044c:	0007879b          	sext.w	a5,a5
    80000450:	00078513          	mv	a0,a5
    80000454:	01c000ef          	jal	80000470 <assert>
    80000458:	00000793          	li	a5,0
    8000045c:	00078513          	mv	a0,a5
    80000460:	01813083          	ld	ra,24(sp)
    80000464:	01013403          	ld	s0,16(sp)
    80000468:	02010113          	add	sp,sp,32
    8000046c:	00008067          	ret

0000000080000470 <assert>:
    80000470:	fe010113          	add	sp,sp,-32
    80000474:	00113c23          	sd	ra,24(sp)
    80000478:	00813823          	sd	s0,16(sp)
    8000047c:	02010413          	add	s0,sp,32
    80000480:	00050793          	mv	a5,a0
    80000484:	fef42623          	sw	a5,-20(s0)
    80000488:	fec42783          	lw	a5,-20(s0)
    8000048c:	0007879b          	sext.w	a5,a5
    80000490:	00079663          	bnez	a5,8000049c <assert+0x2c>
    80000494:	00100513          	li	a0,1
    80000498:	018000ef          	jal	800004b0 <_exit>
    8000049c:	00000013          	nop
    800004a0:	01813083          	ld	ra,24(sp)
    800004a4:	01013403          	ld	s0,16(sp)
    800004a8:	02010113          	add	sp,sp,32
    800004ac:	00008067          	ret

00000000800004b0 <_exit>:
    800004b0:	fe010113          	add	sp,sp,-32
    800004b4:	00113c23          	sd	ra,24(sp)
    800004b8:	00813823          	sd	s0,16(sp)
    800004bc:	02010413          	add	s0,sp,32
    800004c0:	00050793          	mv	a5,a0
    800004c4:	fef42623          	sw	a5,-20(s0)
    800004c8:	420000ef          	jal	800008e8 <htif_poweroff>

00000000800004cc <console_putchar>:
    800004cc:	fe010113          	add	sp,sp,-32
    800004d0:	00113c23          	sd	ra,24(sp)
    800004d4:	00813823          	sd	s0,16(sp)
    800004d8:	02010413          	add	s0,sp,32
    800004dc:	00050793          	mv	a5,a0
    800004e0:	fef407a3          	sb	a5,-17(s0)
    800004e4:	fef44783          	lbu	a5,-17(s0)
    800004e8:	0007879b          	sext.w	a5,a5
    800004ec:	00078513          	mv	a0,a5
    800004f0:	018000ef          	jal	80000508 <uart_write>
    800004f4:	00000013          	nop
    800004f8:	01813083          	ld	ra,24(sp)
    800004fc:	01013403          	ld	s0,16(sp)
    80000500:	02010113          	add	sp,sp,32
    80000504:	00008067          	ret

0000000080000508 <uart_write>:
    80000508:	fe010113          	add	sp,sp,-32
    8000050c:	00113c23          	sd	ra,24(sp)
    80000510:	00813823          	sd	s0,16(sp)
    80000514:	02010413          	add	s0,sp,32
    80000518:	00050793          	mv	a5,a0
    8000051c:	fef407a3          	sb	a5,-17(s0)
    80000520:	fef44783          	lbu	a5,-17(s0)
    80000524:	00078513          	mv	a0,a5
    80000528:	368000ef          	jal	80000890 <htif_console_putchar>
    8000052c:	00000013          	nop
    80000530:	01813083          	ld	ra,24(sp)
    80000534:	01013403          	ld	s0,16(sp)
    80000538:	02010113          	add	sp,sp,32
    8000053c:	00008067          	ret

0000000080000540 <spinlock_trylock>:
    80000540:	fd010113          	add	sp,sp,-48
    80000544:	02813423          	sd	s0,40(sp)
    80000548:	03010413          	add	s0,sp,48
    8000054c:	fca43c23          	sd	a0,-40(s0)
    80000550:	fd843783          	ld	a5,-40(s0)
    80000554:	fff00713          	li	a4,-1
    80000558:	0ce7a72f          	amoswap.w.aq	a4,a4,(a5)
    8000055c:	0007079b          	sext.w	a5,a4
    80000560:	fef42623          	sw	a5,-20(s0)
    80000564:	0ff0000f          	fence
    80000568:	fec42783          	lw	a5,-20(s0)
    8000056c:	00078513          	mv	a0,a5
    80000570:	02813403          	ld	s0,40(sp)
    80000574:	03010113          	add	sp,sp,48
    80000578:	00008067          	ret

000000008000057c <spinlock_lock>:
    8000057c:	fe010113          	add	sp,sp,-32
    80000580:	00113c23          	sd	ra,24(sp)
    80000584:	00813823          	sd	s0,16(sp)
    80000588:	02010413          	add	s0,sp,32
    8000058c:	fea43423          	sd	a0,-24(s0)
    80000590:	00000013          	nop
    80000594:	fe843783          	ld	a5,-24(s0)
    80000598:	0007a783          	lw	a5,0(a5)
    8000059c:	0007879b          	sext.w	a5,a5
    800005a0:	fe079ae3          	bnez	a5,80000594 <spinlock_lock+0x18>
    800005a4:	fe843503          	ld	a0,-24(s0)
    800005a8:	f99ff0ef          	jal	80000540 <spinlock_trylock>
    800005ac:	00050793          	mv	a5,a0
    800005b0:	fe0790e3          	bnez	a5,80000590 <spinlock_lock+0x14>
    800005b4:	00000013          	nop
    800005b8:	00000013          	nop
    800005bc:	01813083          	ld	ra,24(sp)
    800005c0:	01013403          	ld	s0,16(sp)
    800005c4:	02010113          	add	sp,sp,32
    800005c8:	00008067          	ret

00000000800005cc <spinlock_unlock>:
    800005cc:	fe010113          	add	sp,sp,-32
    800005d0:	00813c23          	sd	s0,24(sp)
    800005d4:	02010413          	add	s0,sp,32
    800005d8:	fea43423          	sd	a0,-24(s0)
    800005dc:	0ff0000f          	fence
    800005e0:	fe843783          	ld	a5,-24(s0)
    800005e4:	0007a023          	sw	zero,0(a5)
    800005e8:	00000013          	nop
    800005ec:	01813403          	ld	s0,24(sp)
    800005f0:	02010113          	add	sp,sp,32
    800005f4:	00008067          	ret

00000000800005f8 <__check_fromhost>:
    800005f8:	fe010113          	add	sp,sp,-32
    800005fc:	00113c23          	sd	ra,24(sp)
    80000600:	00813823          	sd	s0,16(sp)
    80000604:	02010413          	add	s0,sp,32
    80000608:	00000797          	auipc	a5,0x0
    8000060c:	31878793          	add	a5,a5,792 # 80000920 <fromhost>
    80000610:	0007b783          	ld	a5,0(a5)
    80000614:	fef43423          	sd	a5,-24(s0)
    80000618:	fe843783          	ld	a5,-24(s0)
    8000061c:	06078e63          	beqz	a5,80000698 <__check_fromhost+0xa0>
    80000620:	00000797          	auipc	a5,0x0
    80000624:	30078793          	add	a5,a5,768 # 80000920 <fromhost>
    80000628:	0007b023          	sd	zero,0(a5)
    8000062c:	fe843783          	ld	a5,-24(s0)
    80000630:	0387d793          	srl	a5,a5,0x38
    80000634:	fff78793          	add	a5,a5,-1
    80000638:	0017b793          	seqz	a5,a5
    8000063c:	0ff7f793          	zext.b	a5,a5
    80000640:	0007879b          	sext.w	a5,a5
    80000644:	00078513          	mv	a0,a5
    80000648:	e29ff0ef          	jal	80000470 <assert>
    8000064c:	fe843783          	ld	a5,-24(s0)
    80000650:	00879793          	sll	a5,a5,0x8
    80000654:	0387d793          	srl	a5,a5,0x38
    80000658:	00078863          	beqz	a5,80000668 <__check_fromhost+0x70>
    8000065c:	00100713          	li	a4,1
    80000660:	04e78063          	beq	a5,a4,800006a0 <__check_fromhost+0xa8>
    80000664:	0280006f          	j	8000068c <__check_fromhost+0x94>
    80000668:	fe843783          	ld	a5,-24(s0)
    8000066c:	0ff7f793          	zext.b	a5,a5
    80000670:	0007879b          	sext.w	a5,a5
    80000674:	0017879b          	addw	a5,a5,1
    80000678:	0007871b          	sext.w	a4,a5
    8000067c:	00000797          	auipc	a5,0x0
    80000680:	2e478793          	add	a5,a5,740 # 80000960 <htif_console_buf>
    80000684:	00e7a023          	sw	a4,0(a5)
    80000688:	01c0006f          	j	800006a4 <__check_fromhost+0xac>
    8000068c:	00000513          	li	a0,0
    80000690:	de1ff0ef          	jal	80000470 <assert>
    80000694:	0100006f          	j	800006a4 <__check_fromhost+0xac>
    80000698:	00000013          	nop
    8000069c:	0080006f          	j	800006a4 <__check_fromhost+0xac>
    800006a0:	00000013          	nop
    800006a4:	01813083          	ld	ra,24(sp)
    800006a8:	01013403          	ld	s0,16(sp)
    800006ac:	02010113          	add	sp,sp,32
    800006b0:	00008067          	ret

00000000800006b4 <__set_tohost>:
    800006b4:	fd010113          	add	sp,sp,-48
    800006b8:	02113423          	sd	ra,40(sp)
    800006bc:	02813023          	sd	s0,32(sp)
    800006c0:	03010413          	add	s0,sp,48
    800006c4:	fea43423          	sd	a0,-24(s0)
    800006c8:	feb43023          	sd	a1,-32(s0)
    800006cc:	fcc43c23          	sd	a2,-40(s0)
    800006d0:	0080006f          	j	800006d8 <__set_tohost+0x24>
    800006d4:	f25ff0ef          	jal	800005f8 <__check_fromhost>
    800006d8:	00000797          	auipc	a5,0x0
    800006dc:	24078793          	add	a5,a5,576 # 80000918 <_etext>
    800006e0:	0007b783          	ld	a5,0(a5)
    800006e4:	fe0798e3          	bnez	a5,800006d4 <__set_tohost+0x20>
    800006e8:	fe843783          	ld	a5,-24(s0)
    800006ec:	03879713          	sll	a4,a5,0x38
    800006f0:	fe043783          	ld	a5,-32(s0)
    800006f4:	03079793          	sll	a5,a5,0x30
    800006f8:	00f76733          	or	a4,a4,a5
    800006fc:	fd843783          	ld	a5,-40(s0)
    80000700:	00f76733          	or	a4,a4,a5
    80000704:	00000797          	auipc	a5,0x0
    80000708:	21478793          	add	a5,a5,532 # 80000918 <_etext>
    8000070c:	00e7b023          	sd	a4,0(a5)
    80000710:	00000013          	nop
    80000714:	02813083          	ld	ra,40(sp)
    80000718:	02013403          	ld	s0,32(sp)
    8000071c:	03010113          	add	sp,sp,48
    80000720:	00008067          	ret

0000000080000724 <htif_console_getchar>:
    80000724:	fe010113          	add	sp,sp,-32
    80000728:	00113c23          	sd	ra,24(sp)
    8000072c:	00813823          	sd	s0,16(sp)
    80000730:	02010413          	add	s0,sp,32
    80000734:	00000517          	auipc	a0,0x0
    80000738:	23450513          	add	a0,a0,564 # 80000968 <htif_lock>
    8000073c:	e41ff0ef          	jal	8000057c <spinlock_lock>
    80000740:	eb9ff0ef          	jal	800005f8 <__check_fromhost>
    80000744:	00000797          	auipc	a5,0x0
    80000748:	21c78793          	add	a5,a5,540 # 80000960 <htif_console_buf>
    8000074c:	0007a783          	lw	a5,0(a5)
    80000750:	fef42623          	sw	a5,-20(s0)
    80000754:	fec42783          	lw	a5,-20(s0)
    80000758:	0007879b          	sext.w	a5,a5
    8000075c:	0207c263          	bltz	a5,80000780 <htif_console_getchar+0x5c>
    80000760:	00000797          	auipc	a5,0x0
    80000764:	20078793          	add	a5,a5,512 # 80000960 <htif_console_buf>
    80000768:	fff00713          	li	a4,-1
    8000076c:	00e7a023          	sw	a4,0(a5)
    80000770:	00000613          	li	a2,0
    80000774:	00000593          	li	a1,0
    80000778:	00100513          	li	a0,1
    8000077c:	f39ff0ef          	jal	800006b4 <__set_tohost>
    80000780:	00000517          	auipc	a0,0x0
    80000784:	1e850513          	add	a0,a0,488 # 80000968 <htif_lock>
    80000788:	e45ff0ef          	jal	800005cc <spinlock_unlock>
    8000078c:	fec42783          	lw	a5,-20(s0)
    80000790:	fff7879b          	addw	a5,a5,-1
    80000794:	0007879b          	sext.w	a5,a5
    80000798:	00078513          	mv	a0,a5
    8000079c:	01813083          	ld	ra,24(sp)
    800007a0:	01013403          	ld	s0,16(sp)
    800007a4:	02010113          	add	sp,sp,32
    800007a8:	00008067          	ret

00000000800007ac <do_tohost_fromhost>:
    800007ac:	fc010113          	add	sp,sp,-64
    800007b0:	02113c23          	sd	ra,56(sp)
    800007b4:	02813823          	sd	s0,48(sp)
    800007b8:	04010413          	add	s0,sp,64
    800007bc:	fca43c23          	sd	a0,-40(s0)
    800007c0:	fcb43823          	sd	a1,-48(s0)
    800007c4:	fcc43423          	sd	a2,-56(s0)
    800007c8:	00000517          	auipc	a0,0x0
    800007cc:	1a050513          	add	a0,a0,416 # 80000968 <htif_lock>
    800007d0:	dadff0ef          	jal	8000057c <spinlock_lock>
    800007d4:	fc843603          	ld	a2,-56(s0)
    800007d8:	fd043583          	ld	a1,-48(s0)
    800007dc:	fd843503          	ld	a0,-40(s0)
    800007e0:	ed5ff0ef          	jal	800006b4 <__set_tohost>
    800007e4:	00000797          	auipc	a5,0x0
    800007e8:	13c78793          	add	a5,a5,316 # 80000920 <fromhost>
    800007ec:	0007b783          	ld	a5,0(a5)
    800007f0:	fef43423          	sd	a5,-24(s0)
    800007f4:	fe843783          	ld	a5,-24(s0)
    800007f8:	fe0786e3          	beqz	a5,800007e4 <do_tohost_fromhost+0x38>
    800007fc:	fe843783          	ld	a5,-24(s0)
    80000800:	0387d793          	srl	a5,a5,0x38
    80000804:	fd843703          	ld	a4,-40(s0)
    80000808:	02f71463          	bne	a4,a5,80000830 <do_tohost_fromhost+0x84>
    8000080c:	fe843783          	ld	a5,-24(s0)
    80000810:	00879793          	sll	a5,a5,0x8
    80000814:	0387d793          	srl	a5,a5,0x38
    80000818:	fd043703          	ld	a4,-48(s0)
    8000081c:	00f71a63          	bne	a4,a5,80000830 <do_tohost_fromhost+0x84>
    80000820:	00000797          	auipc	a5,0x0
    80000824:	10078793          	add	a5,a5,256 # 80000920 <fromhost>
    80000828:	0007b023          	sd	zero,0(a5)
    8000082c:	00c0006f          	j	80000838 <do_tohost_fromhost+0x8c>
    80000830:	dc9ff0ef          	jal	800005f8 <__check_fromhost>
    80000834:	fb1ff06f          	j	800007e4 <do_tohost_fromhost+0x38>
    80000838:	00000517          	auipc	a0,0x0
    8000083c:	13050513          	add	a0,a0,304 # 80000968 <htif_lock>
    80000840:	d8dff0ef          	jal	800005cc <spinlock_unlock>
    80000844:	00000013          	nop
    80000848:	03813083          	ld	ra,56(sp)
    8000084c:	03013403          	ld	s0,48(sp)
    80000850:	04010113          	add	sp,sp,64
    80000854:	00008067          	ret

0000000080000858 <htif_syscall>:
    80000858:	fe010113          	add	sp,sp,-32
    8000085c:	00113c23          	sd	ra,24(sp)
    80000860:	00813823          	sd	s0,16(sp)
    80000864:	02010413          	add	s0,sp,32
    80000868:	fea43423          	sd	a0,-24(s0)
    8000086c:	fe843603          	ld	a2,-24(s0)
    80000870:	00000593          	li	a1,0
    80000874:	00000513          	li	a0,0
    80000878:	f35ff0ef          	jal	800007ac <do_tohost_fromhost>
    8000087c:	00000013          	nop
    80000880:	01813083          	ld	ra,24(sp)
    80000884:	01013403          	ld	s0,16(sp)
    80000888:	02010113          	add	sp,sp,32
    8000088c:	00008067          	ret

0000000080000890 <htif_console_putchar>:
    80000890:	fe010113          	add	sp,sp,-32
    80000894:	00113c23          	sd	ra,24(sp)
    80000898:	00813823          	sd	s0,16(sp)
    8000089c:	02010413          	add	s0,sp,32
    800008a0:	00050793          	mv	a5,a0
    800008a4:	fef407a3          	sb	a5,-17(s0)
    800008a8:	00000517          	auipc	a0,0x0
    800008ac:	0c050513          	add	a0,a0,192 # 80000968 <htif_lock>
    800008b0:	ccdff0ef          	jal	8000057c <spinlock_lock>
    800008b4:	fef44783          	lbu	a5,-17(s0)
    800008b8:	00078613          	mv	a2,a5
    800008bc:	00100593          	li	a1,1
    800008c0:	00100513          	li	a0,1
    800008c4:	df1ff0ef          	jal	800006b4 <__set_tohost>
    800008c8:	00000517          	auipc	a0,0x0
    800008cc:	0a050513          	add	a0,a0,160 # 80000968 <htif_lock>
    800008d0:	cfdff0ef          	jal	800005cc <spinlock_unlock>
    800008d4:	00000013          	nop
    800008d8:	01813083          	ld	ra,24(sp)
    800008dc:	01013403          	ld	s0,16(sp)
    800008e0:	02010113          	add	sp,sp,32
    800008e4:	00008067          	ret

00000000800008e8 <htif_poweroff>:
    800008e8:	ff010113          	add	sp,sp,-16
    800008ec:	00813423          	sd	s0,8(sp)
    800008f0:	01010413          	add	s0,sp,16
    800008f4:	00000797          	auipc	a5,0x0
    800008f8:	02c78793          	add	a5,a5,44 # 80000920 <fromhost>
    800008fc:	0007b023          	sd	zero,0(a5)
    80000900:	00000797          	auipc	a5,0x0
    80000904:	01878793          	add	a5,a5,24 # 80000918 <_etext>
    80000908:	00100713          	li	a4,1
    8000090c:	00e7b023          	sd	a4,0(a5)
    80000910:	00000013          	nop
    80000914:	fe1ff06f          	j	800008f4 <htif_poweroff+0xc>
