
/home/asker/szu-lab/lab-test/tests/futest/cputest/build/./spike/string-spike.elf:     file format elf64-littleriscv


Disassembly of section .text:

0000000080000000 <main>:
    80000000:	ff010113          	add	sp,sp,-16
    80000004:	00113423          	sd	ra,8(sp)
    80000008:	00813023          	sd	s0,0(sp)
    8000000c:	01010413          	add	s0,sp,16
    80000010:	00001797          	auipc	a5,0x1
    80000014:	cf878793          	add	a5,a5,-776 # 80000d08 <s>
    80000018:	0007b703          	ld	a4,0(a5)
    8000001c:	00001797          	auipc	a5,0x1
    80000020:	cec78793          	add	a5,a5,-788 # 80000d08 <s>
    80000024:	0107b783          	ld	a5,16(a5)
    80000028:	00078593          	mv	a1,a5
    8000002c:	00070513          	mv	a0,a4
    80000030:	3fc000ef          	jal	8000042c <strcmp>
    80000034:	00050793          	mv	a5,a0
    80000038:	0017b793          	seqz	a5,a5
    8000003c:	0ff7f793          	zext.b	a5,a5
    80000040:	0007879b          	sext.w	a5,a5
    80000044:	00078513          	mv	a0,a5
    80000048:	790000ef          	jal	800007d8 <assert>
    8000004c:	00001797          	auipc	a5,0x1
    80000050:	cbc78793          	add	a5,a5,-836 # 80000d08 <s>
    80000054:	0007b703          	ld	a4,0(a5)
    80000058:	00001797          	auipc	a5,0x1
    8000005c:	cb078793          	add	a5,a5,-848 # 80000d08 <s>
    80000060:	0087b783          	ld	a5,8(a5)
    80000064:	00078593          	mv	a1,a5
    80000068:	00070513          	mv	a0,a4
    8000006c:	3c0000ef          	jal	8000042c <strcmp>
    80000070:	00050793          	mv	a5,a0
    80000074:	00078713          	mv	a4,a5
    80000078:	fff00793          	li	a5,-1
    8000007c:	40f707b3          	sub	a5,a4,a5
    80000080:	0017b793          	seqz	a5,a5
    80000084:	0ff7f793          	zext.b	a5,a5
    80000088:	0007879b          	sext.w	a5,a5
    8000008c:	00078513          	mv	a0,a5
    80000090:	748000ef          	jal	800007d8 <assert>
    80000094:	00001797          	auipc	a5,0x1
    80000098:	c7478793          	add	a5,a5,-908 # 80000d08 <s>
    8000009c:	0007b783          	ld	a5,0(a5)
    800000a0:	00178713          	add	a4,a5,1
    800000a4:	00001797          	auipc	a5,0x1
    800000a8:	c6478793          	add	a5,a5,-924 # 80000d08 <s>
    800000ac:	0087b783          	ld	a5,8(a5)
    800000b0:	00178793          	add	a5,a5,1
    800000b4:	00078593          	mv	a1,a5
    800000b8:	00070513          	mv	a0,a4
    800000bc:	370000ef          	jal	8000042c <strcmp>
    800000c0:	00050793          	mv	a5,a0
    800000c4:	00078713          	mv	a4,a5
    800000c8:	fff00793          	li	a5,-1
    800000cc:	40f707b3          	sub	a5,a4,a5
    800000d0:	0017b793          	seqz	a5,a5
    800000d4:	0ff7f793          	zext.b	a5,a5
    800000d8:	0007879b          	sext.w	a5,a5
    800000dc:	00078513          	mv	a0,a5
    800000e0:	6f8000ef          	jal	800007d8 <assert>
    800000e4:	00001797          	auipc	a5,0x1
    800000e8:	c2478793          	add	a5,a5,-988 # 80000d08 <s>
    800000ec:	0007b783          	ld	a5,0(a5)
    800000f0:	00278713          	add	a4,a5,2
    800000f4:	00001797          	auipc	a5,0x1
    800000f8:	c1478793          	add	a5,a5,-1004 # 80000d08 <s>
    800000fc:	0087b783          	ld	a5,8(a5)
    80000100:	00278793          	add	a5,a5,2
    80000104:	00078593          	mv	a1,a5
    80000108:	00070513          	mv	a0,a4
    8000010c:	320000ef          	jal	8000042c <strcmp>
    80000110:	00050793          	mv	a5,a0
    80000114:	00078713          	mv	a4,a5
    80000118:	fff00793          	li	a5,-1
    8000011c:	40f707b3          	sub	a5,a4,a5
    80000120:	0017b793          	seqz	a5,a5
    80000124:	0ff7f793          	zext.b	a5,a5
    80000128:	0007879b          	sext.w	a5,a5
    8000012c:	00078513          	mv	a0,a5
    80000130:	6a8000ef          	jal	800007d8 <assert>
    80000134:	00001797          	auipc	a5,0x1
    80000138:	bd478793          	add	a5,a5,-1068 # 80000d08 <s>
    8000013c:	0007b783          	ld	a5,0(a5)
    80000140:	00378713          	add	a4,a5,3
    80000144:	00001797          	auipc	a5,0x1
    80000148:	bc478793          	add	a5,a5,-1084 # 80000d08 <s>
    8000014c:	0087b783          	ld	a5,8(a5)
    80000150:	00378793          	add	a5,a5,3
    80000154:	00078593          	mv	a1,a5
    80000158:	00070513          	mv	a0,a4
    8000015c:	2d0000ef          	jal	8000042c <strcmp>
    80000160:	00050793          	mv	a5,a0
    80000164:	00078713          	mv	a4,a5
    80000168:	fff00793          	li	a5,-1
    8000016c:	40f707b3          	sub	a5,a4,a5
    80000170:	0017b793          	seqz	a5,a5
    80000174:	0ff7f793          	zext.b	a5,a5
    80000178:	0007879b          	sext.w	a5,a5
    8000017c:	00078513          	mv	a0,a5
    80000180:	658000ef          	jal	800007d8 <assert>
    80000184:	00001597          	auipc	a1,0x1
    80000188:	bb458593          	add	a1,a1,-1100 # 80000d38 <str1>
    8000018c:	00001517          	auipc	a0,0x1
    80000190:	bb450513          	add	a0,a0,-1100 # 80000d40 <str>
    80000194:	120000ef          	jal	800002b4 <strcpy>
    80000198:	00050793          	mv	a5,a0
    8000019c:	00078713          	mv	a4,a5
    800001a0:	00001797          	auipc	a5,0x1
    800001a4:	b6878793          	add	a5,a5,-1176 # 80000d08 <s>
    800001a8:	0187b783          	ld	a5,24(a5)
    800001ac:	00078593          	mv	a1,a5
    800001b0:	00070513          	mv	a0,a4
    800001b4:	200000ef          	jal	800003b4 <strcat>
    800001b8:	00050793          	mv	a5,a0
    800001bc:	00078713          	mv	a4,a5
    800001c0:	00001797          	auipc	a5,0x1
    800001c4:	b4878793          	add	a5,a5,-1208 # 80000d08 <s>
    800001c8:	0207b783          	ld	a5,32(a5)
    800001cc:	00078593          	mv	a1,a5
    800001d0:	00070513          	mv	a0,a4
    800001d4:	258000ef          	jal	8000042c <strcmp>
    800001d8:	00050793          	mv	a5,a0
    800001dc:	0017b793          	seqz	a5,a5
    800001e0:	0ff7f793          	zext.b	a5,a5
    800001e4:	0007879b          	sext.w	a5,a5
    800001e8:	00078513          	mv	a0,a5
    800001ec:	5ec000ef          	jal	800007d8 <assert>
    800001f0:	00500613          	li	a2,5
    800001f4:	02300593          	li	a1,35
    800001f8:	00001517          	auipc	a0,0x1
    800001fc:	b4850513          	add	a0,a0,-1208 # 80000d40 <str>
    80000200:	354000ef          	jal	80000554 <memset>
    80000204:	00050793          	mv	a5,a0
    80000208:	00078713          	mv	a4,a5
    8000020c:	00001797          	auipc	a5,0x1
    80000210:	afc78793          	add	a5,a5,-1284 # 80000d08 <s>
    80000214:	0287b783          	ld	a5,40(a5)
    80000218:	00500613          	li	a2,5
    8000021c:	00078593          	mv	a1,a5
    80000220:	00070513          	mv	a0,a4
    80000224:	510000ef          	jal	80000734 <memcmp>
    80000228:	00050793          	mv	a5,a0
    8000022c:	0017b793          	seqz	a5,a5
    80000230:	0ff7f793          	zext.b	a5,a5
    80000234:	0007879b          	sext.w	a5,a5
    80000238:	00078513          	mv	a0,a5
    8000023c:	59c000ef          	jal	800007d8 <assert>
    80000240:	00000793          	li	a5,0
    80000244:	00078513          	mv	a0,a5
    80000248:	00813083          	ld	ra,8(sp)
    8000024c:	00013403          	ld	s0,0(sp)
    80000250:	01010113          	add	sp,sp,16
    80000254:	00008067          	ret

0000000080000258 <strlen>:
    80000258:	fd010113          	add	sp,sp,-48
    8000025c:	02813423          	sd	s0,40(sp)
    80000260:	03010413          	add	s0,sp,48
    80000264:	fca43c23          	sd	a0,-40(s0)
    80000268:	fe042623          	sw	zero,-20(s0)
    8000026c:	fe042423          	sw	zero,-24(s0)
    80000270:	01c0006f          	j	8000028c <strlen+0x34>
    80000274:	fec42783          	lw	a5,-20(s0)
    80000278:	0017879b          	addw	a5,a5,1
    8000027c:	fef42623          	sw	a5,-20(s0)
    80000280:	fe842783          	lw	a5,-24(s0)
    80000284:	0017879b          	addw	a5,a5,1
    80000288:	fef42423          	sw	a5,-24(s0)
    8000028c:	fe842783          	lw	a5,-24(s0)
    80000290:	fd843703          	ld	a4,-40(s0)
    80000294:	00f707b3          	add	a5,a4,a5
    80000298:	0007c783          	lbu	a5,0(a5)
    8000029c:	fc079ce3          	bnez	a5,80000274 <strlen+0x1c>
    800002a0:	fec42783          	lw	a5,-20(s0)
    800002a4:	00078513          	mv	a0,a5
    800002a8:	02813403          	ld	s0,40(sp)
    800002ac:	03010113          	add	sp,sp,48
    800002b0:	00008067          	ret

00000000800002b4 <strcpy>:
    800002b4:	fd010113          	add	sp,sp,-48
    800002b8:	02813423          	sd	s0,40(sp)
    800002bc:	03010413          	add	s0,sp,48
    800002c0:	fca43c23          	sd	a0,-40(s0)
    800002c4:	fcb43823          	sd	a1,-48(s0)
    800002c8:	fd843783          	ld	a5,-40(s0)
    800002cc:	fef43423          	sd	a5,-24(s0)
    800002d0:	00000013          	nop
    800002d4:	fd043703          	ld	a4,-48(s0)
    800002d8:	00170793          	add	a5,a4,1
    800002dc:	fcf43823          	sd	a5,-48(s0)
    800002e0:	fe843783          	ld	a5,-24(s0)
    800002e4:	00178693          	add	a3,a5,1
    800002e8:	fed43423          	sd	a3,-24(s0)
    800002ec:	00074703          	lbu	a4,0(a4)
    800002f0:	00e78023          	sb	a4,0(a5)
    800002f4:	0007c783          	lbu	a5,0(a5)
    800002f8:	fc079ee3          	bnez	a5,800002d4 <strcpy+0x20>
    800002fc:	fd843783          	ld	a5,-40(s0)
    80000300:	00078513          	mv	a0,a5
    80000304:	02813403          	ld	s0,40(sp)
    80000308:	03010113          	add	sp,sp,48
    8000030c:	00008067          	ret

0000000080000310 <strncpy>:
    80000310:	fc010113          	add	sp,sp,-64
    80000314:	02813c23          	sd	s0,56(sp)
    80000318:	04010413          	add	s0,sp,64
    8000031c:	fca43c23          	sd	a0,-40(s0)
    80000320:	fcb43823          	sd	a1,-48(s0)
    80000324:	fcc43423          	sd	a2,-56(s0)
    80000328:	fd843783          	ld	a5,-40(s0)
    8000032c:	fef43423          	sd	a5,-24(s0)
    80000330:	0100006f          	j	80000340 <strncpy+0x30>
    80000334:	fc843783          	ld	a5,-56(s0)
    80000338:	fff78793          	add	a5,a5,-1
    8000033c:	fcf43423          	sd	a5,-56(s0)
    80000340:	fc843783          	ld	a5,-56(s0)
    80000344:	02078663          	beqz	a5,80000370 <strncpy+0x60>
    80000348:	fd043703          	ld	a4,-48(s0)
    8000034c:	00170793          	add	a5,a4,1
    80000350:	fcf43823          	sd	a5,-48(s0)
    80000354:	fd843783          	ld	a5,-40(s0)
    80000358:	00178693          	add	a3,a5,1
    8000035c:	fcd43c23          	sd	a3,-40(s0)
    80000360:	00074703          	lbu	a4,0(a4)
    80000364:	00e78023          	sb	a4,0(a5)
    80000368:	0007c783          	lbu	a5,0(a5)
    8000036c:	fc0794e3          	bnez	a5,80000334 <strncpy+0x24>
    80000370:	fc843783          	ld	a5,-56(s0)
    80000374:	02078663          	beqz	a5,800003a0 <strncpy+0x90>
    80000378:	0140006f          	j	8000038c <strncpy+0x7c>
    8000037c:	fd843783          	ld	a5,-40(s0)
    80000380:	00178713          	add	a4,a5,1
    80000384:	fce43c23          	sd	a4,-40(s0)
    80000388:	00078023          	sb	zero,0(a5)
    8000038c:	fc843783          	ld	a5,-56(s0)
    80000390:	fff78793          	add	a5,a5,-1
    80000394:	fcf43423          	sd	a5,-56(s0)
    80000398:	fc843783          	ld	a5,-56(s0)
    8000039c:	fe0790e3          	bnez	a5,8000037c <strncpy+0x6c>
    800003a0:	fe843783          	ld	a5,-24(s0)
    800003a4:	00078513          	mv	a0,a5
    800003a8:	03813403          	ld	s0,56(sp)
    800003ac:	04010113          	add	sp,sp,64
    800003b0:	00008067          	ret

00000000800003b4 <strcat>:
    800003b4:	fd010113          	add	sp,sp,-48
    800003b8:	02813423          	sd	s0,40(sp)
    800003bc:	03010413          	add	s0,sp,48
    800003c0:	fca43c23          	sd	a0,-40(s0)
    800003c4:	fcb43823          	sd	a1,-48(s0)
    800003c8:	fd843783          	ld	a5,-40(s0)
    800003cc:	fef43423          	sd	a5,-24(s0)
    800003d0:	0100006f          	j	800003e0 <strcat+0x2c>
    800003d4:	fd843783          	ld	a5,-40(s0)
    800003d8:	00178793          	add	a5,a5,1
    800003dc:	fcf43c23          	sd	a5,-40(s0)
    800003e0:	fd843783          	ld	a5,-40(s0)
    800003e4:	0007c783          	lbu	a5,0(a5)
    800003e8:	fe0796e3          	bnez	a5,800003d4 <strcat+0x20>
    800003ec:	00000013          	nop
    800003f0:	fd043703          	ld	a4,-48(s0)
    800003f4:	00170793          	add	a5,a4,1
    800003f8:	fcf43823          	sd	a5,-48(s0)
    800003fc:	fd843783          	ld	a5,-40(s0)
    80000400:	00178693          	add	a3,a5,1
    80000404:	fcd43c23          	sd	a3,-40(s0)
    80000408:	00074703          	lbu	a4,0(a4)
    8000040c:	00e78023          	sb	a4,0(a5)
    80000410:	0007c783          	lbu	a5,0(a5)
    80000414:	fc079ee3          	bnez	a5,800003f0 <strcat+0x3c>
    80000418:	fe843783          	ld	a5,-24(s0)
    8000041c:	00078513          	mv	a0,a5
    80000420:	02813403          	ld	s0,40(sp)
    80000424:	03010113          	add	sp,sp,48
    80000428:	00008067          	ret

000000008000042c <strcmp>:
    8000042c:	fe010113          	add	sp,sp,-32
    80000430:	00813c23          	sd	s0,24(sp)
    80000434:	02010413          	add	s0,sp,32
    80000438:	fea43423          	sd	a0,-24(s0)
    8000043c:	feb43023          	sd	a1,-32(s0)
    80000440:	01c0006f          	j	8000045c <strcmp+0x30>
    80000444:	fe843783          	ld	a5,-24(s0)
    80000448:	00178793          	add	a5,a5,1
    8000044c:	fef43423          	sd	a5,-24(s0)
    80000450:	fe043783          	ld	a5,-32(s0)
    80000454:	00178793          	add	a5,a5,1
    80000458:	fef43023          	sd	a5,-32(s0)
    8000045c:	fe843783          	ld	a5,-24(s0)
    80000460:	0007c783          	lbu	a5,0(a5)
    80000464:	00078c63          	beqz	a5,8000047c <strcmp+0x50>
    80000468:	fe843783          	ld	a5,-24(s0)
    8000046c:	0007c703          	lbu	a4,0(a5)
    80000470:	fe043783          	ld	a5,-32(s0)
    80000474:	0007c783          	lbu	a5,0(a5)
    80000478:	fcf706e3          	beq	a4,a5,80000444 <strcmp+0x18>
    8000047c:	fe843783          	ld	a5,-24(s0)
    80000480:	0007c783          	lbu	a5,0(a5)
    80000484:	0007871b          	sext.w	a4,a5
    80000488:	fe043783          	ld	a5,-32(s0)
    8000048c:	0007c783          	lbu	a5,0(a5)
    80000490:	0007879b          	sext.w	a5,a5
    80000494:	40f707bb          	subw	a5,a4,a5
    80000498:	0007879b          	sext.w	a5,a5
    8000049c:	00078513          	mv	a0,a5
    800004a0:	01813403          	ld	s0,24(sp)
    800004a4:	02010113          	add	sp,sp,32
    800004a8:	00008067          	ret

00000000800004ac <strncmp>:
    800004ac:	fd010113          	add	sp,sp,-48
    800004b0:	02813423          	sd	s0,40(sp)
    800004b4:	03010413          	add	s0,sp,48
    800004b8:	fea43423          	sd	a0,-24(s0)
    800004bc:	feb43023          	sd	a1,-32(s0)
    800004c0:	fcc43c23          	sd	a2,-40(s0)
    800004c4:	0740006f          	j	80000538 <strncmp+0x8c>
    800004c8:	fe843783          	ld	a5,-24(s0)
    800004cc:	0007c703          	lbu	a4,0(a5)
    800004d0:	fe043783          	ld	a5,-32(s0)
    800004d4:	0007c783          	lbu	a5,0(a5)
    800004d8:	02f70463          	beq	a4,a5,80000500 <strncmp+0x54>
    800004dc:	fe843783          	ld	a5,-24(s0)
    800004e0:	0007c703          	lbu	a4,0(a5)
    800004e4:	fe043783          	ld	a5,-32(s0)
    800004e8:	0007c783          	lbu	a5,0(a5)
    800004ec:	00f77663          	bgeu	a4,a5,800004f8 <strncmp+0x4c>
    800004f0:	fff00793          	li	a5,-1
    800004f4:	0500006f          	j	80000544 <strncmp+0x98>
    800004f8:	00100793          	li	a5,1
    800004fc:	0480006f          	j	80000544 <strncmp+0x98>
    80000500:	fe843783          	ld	a5,-24(s0)
    80000504:	0007c783          	lbu	a5,0(a5)
    80000508:	00079663          	bnez	a5,80000514 <strncmp+0x68>
    8000050c:	00000793          	li	a5,0
    80000510:	0340006f          	j	80000544 <strncmp+0x98>
    80000514:	fe843783          	ld	a5,-24(s0)
    80000518:	00178793          	add	a5,a5,1
    8000051c:	fef43423          	sd	a5,-24(s0)
    80000520:	fe043783          	ld	a5,-32(s0)
    80000524:	00178793          	add	a5,a5,1
    80000528:	fef43023          	sd	a5,-32(s0)
    8000052c:	fd843783          	ld	a5,-40(s0)
    80000530:	fff78793          	add	a5,a5,-1
    80000534:	fcf43c23          	sd	a5,-40(s0)
    80000538:	fd843783          	ld	a5,-40(s0)
    8000053c:	f80796e3          	bnez	a5,800004c8 <strncmp+0x1c>
    80000540:	00000793          	li	a5,0
    80000544:	00078513          	mv	a0,a5
    80000548:	02813403          	ld	s0,40(sp)
    8000054c:	03010113          	add	sp,sp,48
    80000550:	00008067          	ret

0000000080000554 <memset>:
    80000554:	fc010113          	add	sp,sp,-64
    80000558:	02813c23          	sd	s0,56(sp)
    8000055c:	04010413          	add	s0,sp,64
    80000560:	fca43c23          	sd	a0,-40(s0)
    80000564:	00058793          	mv	a5,a1
    80000568:	fcc43423          	sd	a2,-56(s0)
    8000056c:	fcf42a23          	sw	a5,-44(s0)
    80000570:	fd442783          	lw	a5,-44(s0)
    80000574:	fef403a3          	sb	a5,-25(s0)
    80000578:	fd843783          	ld	a5,-40(s0)
    8000057c:	fef43423          	sd	a5,-24(s0)
    80000580:	0280006f          	j	800005a8 <memset+0x54>
    80000584:	fe843783          	ld	a5,-24(s0)
    80000588:	fe744703          	lbu	a4,-25(s0)
    8000058c:	00e78023          	sb	a4,0(a5)
    80000590:	fe843783          	ld	a5,-24(s0)
    80000594:	00178793          	add	a5,a5,1
    80000598:	fef43423          	sd	a5,-24(s0)
    8000059c:	fc843783          	ld	a5,-56(s0)
    800005a0:	fff78793          	add	a5,a5,-1
    800005a4:	fcf43423          	sd	a5,-56(s0)
    800005a8:	fc843783          	ld	a5,-56(s0)
    800005ac:	fc079ce3          	bnez	a5,80000584 <memset+0x30>
    800005b0:	fd843783          	ld	a5,-40(s0)
    800005b4:	00078513          	mv	a0,a5
    800005b8:	03813403          	ld	s0,56(sp)
    800005bc:	04010113          	add	sp,sp,64
    800005c0:	00008067          	ret

00000000800005c4 <memmove>:
    800005c4:	fc010113          	add	sp,sp,-64
    800005c8:	02813c23          	sd	s0,56(sp)
    800005cc:	04010413          	add	s0,sp,64
    800005d0:	fca43c23          	sd	a0,-40(s0)
    800005d4:	fcb43823          	sd	a1,-48(s0)
    800005d8:	fcc43423          	sd	a2,-56(s0)
    800005dc:	fd843783          	ld	a5,-40(s0)
    800005e0:	fef43423          	sd	a5,-24(s0)
    800005e4:	fd043783          	ld	a5,-48(s0)
    800005e8:	fef43023          	sd	a5,-32(s0)
    800005ec:	fe043703          	ld	a4,-32(s0)
    800005f0:	fe843783          	ld	a5,-24(s0)
    800005f4:	0af77463          	bgeu	a4,a5,8000069c <memmove+0xd8>
    800005f8:	fe043703          	ld	a4,-32(s0)
    800005fc:	fc843783          	ld	a5,-56(s0)
    80000600:	00f707b3          	add	a5,a4,a5
    80000604:	fe843703          	ld	a4,-24(s0)
    80000608:	08f77a63          	bgeu	a4,a5,8000069c <memmove+0xd8>
    8000060c:	fe843703          	ld	a4,-24(s0)
    80000610:	fc843783          	ld	a5,-56(s0)
    80000614:	00f707b3          	add	a5,a4,a5
    80000618:	fef43423          	sd	a5,-24(s0)
    8000061c:	fe043703          	ld	a4,-32(s0)
    80000620:	fc843783          	ld	a5,-56(s0)
    80000624:	00f707b3          	add	a5,a4,a5
    80000628:	fef43023          	sd	a5,-32(s0)
    8000062c:	0380006f          	j	80000664 <memmove+0xa0>
    80000630:	fe043783          	ld	a5,-32(s0)
    80000634:	fff78793          	add	a5,a5,-1
    80000638:	fef43023          	sd	a5,-32(s0)
    8000063c:	fe843783          	ld	a5,-24(s0)
    80000640:	fff78793          	add	a5,a5,-1
    80000644:	fef43423          	sd	a5,-24(s0)
    80000648:	fe043783          	ld	a5,-32(s0)
    8000064c:	0007c703          	lbu	a4,0(a5)
    80000650:	fe843783          	ld	a5,-24(s0)
    80000654:	00e78023          	sb	a4,0(a5)
    80000658:	fc843783          	ld	a5,-56(s0)
    8000065c:	fff78793          	add	a5,a5,-1
    80000660:	fcf43423          	sd	a5,-56(s0)
    80000664:	fc843783          	ld	a5,-56(s0)
    80000668:	fc0794e3          	bnez	a5,80000630 <memmove+0x6c>
    8000066c:	0380006f          	j	800006a4 <memmove+0xe0>
    80000670:	fe043703          	ld	a4,-32(s0)
    80000674:	00170793          	add	a5,a4,1
    80000678:	fef43023          	sd	a5,-32(s0)
    8000067c:	fe843783          	ld	a5,-24(s0)
    80000680:	00178693          	add	a3,a5,1
    80000684:	fed43423          	sd	a3,-24(s0)
    80000688:	00074703          	lbu	a4,0(a4)
    8000068c:	00e78023          	sb	a4,0(a5)
    80000690:	fc843783          	ld	a5,-56(s0)
    80000694:	fff78793          	add	a5,a5,-1
    80000698:	fcf43423          	sd	a5,-56(s0)
    8000069c:	fc843783          	ld	a5,-56(s0)
    800006a0:	fc0798e3          	bnez	a5,80000670 <memmove+0xac>
    800006a4:	fd843783          	ld	a5,-40(s0)
    800006a8:	00078513          	mv	a0,a5
    800006ac:	03813403          	ld	s0,56(sp)
    800006b0:	04010113          	add	sp,sp,64
    800006b4:	00008067          	ret

00000000800006b8 <memcpy>:
    800006b8:	fc010113          	add	sp,sp,-64
    800006bc:	02813c23          	sd	s0,56(sp)
    800006c0:	04010413          	add	s0,sp,64
    800006c4:	fca43c23          	sd	a0,-40(s0)
    800006c8:	fcb43823          	sd	a1,-48(s0)
    800006cc:	fcc43423          	sd	a2,-56(s0)
    800006d0:	fd843783          	ld	a5,-40(s0)
    800006d4:	fef43423          	sd	a5,-24(s0)
    800006d8:	fd043783          	ld	a5,-48(s0)
    800006dc:	fef43023          	sd	a5,-32(s0)
    800006e0:	0380006f          	j	80000718 <memcpy+0x60>
    800006e4:	fe043783          	ld	a5,-32(s0)
    800006e8:	0007c703          	lbu	a4,0(a5)
    800006ec:	fe843783          	ld	a5,-24(s0)
    800006f0:	00e78023          	sb	a4,0(a5)
    800006f4:	fe843783          	ld	a5,-24(s0)
    800006f8:	00178793          	add	a5,a5,1
    800006fc:	fef43423          	sd	a5,-24(s0)
    80000700:	fe043783          	ld	a5,-32(s0)
    80000704:	00178793          	add	a5,a5,1
    80000708:	fef43023          	sd	a5,-32(s0)
    8000070c:	fc843783          	ld	a5,-56(s0)
    80000710:	fff78793          	add	a5,a5,-1
    80000714:	fcf43423          	sd	a5,-56(s0)
    80000718:	fc843783          	ld	a5,-56(s0)
    8000071c:	fc0794e3          	bnez	a5,800006e4 <memcpy+0x2c>
    80000720:	fd843783          	ld	a5,-40(s0)
    80000724:	00078513          	mv	a0,a5
    80000728:	03813403          	ld	s0,56(sp)
    8000072c:	04010113          	add	sp,sp,64
    80000730:	00008067          	ret

0000000080000734 <memcmp>:
    80000734:	fc010113          	add	sp,sp,-64
    80000738:	02813c23          	sd	s0,56(sp)
    8000073c:	04010413          	add	s0,sp,64
    80000740:	fca43c23          	sd	a0,-40(s0)
    80000744:	fcb43823          	sd	a1,-48(s0)
    80000748:	fcc43423          	sd	a2,-56(s0)
    8000074c:	fd843783          	ld	a5,-40(s0)
    80000750:	fef43423          	sd	a5,-24(s0)
    80000754:	fd043783          	ld	a5,-48(s0)
    80000758:	fef43023          	sd	a5,-32(s0)
    8000075c:	0600006f          	j	800007bc <memcmp+0x88>
    80000760:	fe843783          	ld	a5,-24(s0)
    80000764:	0007c703          	lbu	a4,0(a5)
    80000768:	fe043783          	ld	a5,-32(s0)
    8000076c:	0007c783          	lbu	a5,0(a5)
    80000770:	02f70463          	beq	a4,a5,80000798 <memcmp+0x64>
    80000774:	fe843783          	ld	a5,-24(s0)
    80000778:	0007c703          	lbu	a4,0(a5)
    8000077c:	fe043783          	ld	a5,-32(s0)
    80000780:	0007c783          	lbu	a5,0(a5)
    80000784:	00f77663          	bgeu	a4,a5,80000790 <memcmp+0x5c>
    80000788:	fff00793          	li	a5,-1
    8000078c:	03c0006f          	j	800007c8 <memcmp+0x94>
    80000790:	00100793          	li	a5,1
    80000794:	0340006f          	j	800007c8 <memcmp+0x94>
    80000798:	fe843783          	ld	a5,-24(s0)
    8000079c:	00178793          	add	a5,a5,1
    800007a0:	fef43423          	sd	a5,-24(s0)
    800007a4:	fe043783          	ld	a5,-32(s0)
    800007a8:	00178793          	add	a5,a5,1
    800007ac:	fef43023          	sd	a5,-32(s0)
    800007b0:	fc843783          	ld	a5,-56(s0)
    800007b4:	fff78793          	add	a5,a5,-1
    800007b8:	fcf43423          	sd	a5,-56(s0)
    800007bc:	fc843783          	ld	a5,-56(s0)
    800007c0:	fa0790e3          	bnez	a5,80000760 <memcmp+0x2c>
    800007c4:	00000793          	li	a5,0
    800007c8:	00078513          	mv	a0,a5
    800007cc:	03813403          	ld	s0,56(sp)
    800007d0:	04010113          	add	sp,sp,64
    800007d4:	00008067          	ret

00000000800007d8 <assert>:
    800007d8:	fe010113          	add	sp,sp,-32
    800007dc:	00113c23          	sd	ra,24(sp)
    800007e0:	00813823          	sd	s0,16(sp)
    800007e4:	02010413          	add	s0,sp,32
    800007e8:	00050793          	mv	a5,a0
    800007ec:	fef42623          	sw	a5,-20(s0)
    800007f0:	fec42783          	lw	a5,-20(s0)
    800007f4:	0007879b          	sext.w	a5,a5
    800007f8:	00079663          	bnez	a5,80000804 <assert+0x2c>
    800007fc:	00100513          	li	a0,1
    80000800:	018000ef          	jal	80000818 <_exit>
    80000804:	00000013          	nop
    80000808:	01813083          	ld	ra,24(sp)
    8000080c:	01013403          	ld	s0,16(sp)
    80000810:	02010113          	add	sp,sp,32
    80000814:	00008067          	ret

0000000080000818 <_exit>:
    80000818:	fe010113          	add	sp,sp,-32
    8000081c:	00113c23          	sd	ra,24(sp)
    80000820:	00813823          	sd	s0,16(sp)
    80000824:	02010413          	add	s0,sp,32
    80000828:	00050793          	mv	a5,a0
    8000082c:	fef42623          	sw	a5,-20(s0)
    80000830:	420000ef          	jal	80000c50 <htif_poweroff>

0000000080000834 <console_putchar>:
    80000834:	fe010113          	add	sp,sp,-32
    80000838:	00113c23          	sd	ra,24(sp)
    8000083c:	00813823          	sd	s0,16(sp)
    80000840:	02010413          	add	s0,sp,32
    80000844:	00050793          	mv	a5,a0
    80000848:	fef407a3          	sb	a5,-17(s0)
    8000084c:	fef44783          	lbu	a5,-17(s0)
    80000850:	0007879b          	sext.w	a5,a5
    80000854:	00078513          	mv	a0,a5
    80000858:	018000ef          	jal	80000870 <uart_write>
    8000085c:	00000013          	nop
    80000860:	01813083          	ld	ra,24(sp)
    80000864:	01013403          	ld	s0,16(sp)
    80000868:	02010113          	add	sp,sp,32
    8000086c:	00008067          	ret

0000000080000870 <uart_write>:
    80000870:	fe010113          	add	sp,sp,-32
    80000874:	00113c23          	sd	ra,24(sp)
    80000878:	00813823          	sd	s0,16(sp)
    8000087c:	02010413          	add	s0,sp,32
    80000880:	00050793          	mv	a5,a0
    80000884:	fef407a3          	sb	a5,-17(s0)
    80000888:	fef44783          	lbu	a5,-17(s0)
    8000088c:	00078513          	mv	a0,a5
    80000890:	368000ef          	jal	80000bf8 <htif_console_putchar>
    80000894:	00000013          	nop
    80000898:	01813083          	ld	ra,24(sp)
    8000089c:	01013403          	ld	s0,16(sp)
    800008a0:	02010113          	add	sp,sp,32
    800008a4:	00008067          	ret

00000000800008a8 <spinlock_trylock>:
    800008a8:	fd010113          	add	sp,sp,-48
    800008ac:	02813423          	sd	s0,40(sp)
    800008b0:	03010413          	add	s0,sp,48
    800008b4:	fca43c23          	sd	a0,-40(s0)
    800008b8:	fd843783          	ld	a5,-40(s0)
    800008bc:	fff00713          	li	a4,-1
    800008c0:	0ce7a72f          	amoswap.w.aq	a4,a4,(a5)
    800008c4:	0007079b          	sext.w	a5,a4
    800008c8:	fef42623          	sw	a5,-20(s0)
    800008cc:	0ff0000f          	fence
    800008d0:	fec42783          	lw	a5,-20(s0)
    800008d4:	00078513          	mv	a0,a5
    800008d8:	02813403          	ld	s0,40(sp)
    800008dc:	03010113          	add	sp,sp,48
    800008e0:	00008067          	ret

00000000800008e4 <spinlock_lock>:
    800008e4:	fe010113          	add	sp,sp,-32
    800008e8:	00113c23          	sd	ra,24(sp)
    800008ec:	00813823          	sd	s0,16(sp)
    800008f0:	02010413          	add	s0,sp,32
    800008f4:	fea43423          	sd	a0,-24(s0)
    800008f8:	00000013          	nop
    800008fc:	fe843783          	ld	a5,-24(s0)
    80000900:	0007a783          	lw	a5,0(a5)
    80000904:	0007879b          	sext.w	a5,a5
    80000908:	fe079ae3          	bnez	a5,800008fc <spinlock_lock+0x18>
    8000090c:	fe843503          	ld	a0,-24(s0)
    80000910:	f99ff0ef          	jal	800008a8 <spinlock_trylock>
    80000914:	00050793          	mv	a5,a0
    80000918:	fe0790e3          	bnez	a5,800008f8 <spinlock_lock+0x14>
    8000091c:	00000013          	nop
    80000920:	00000013          	nop
    80000924:	01813083          	ld	ra,24(sp)
    80000928:	01013403          	ld	s0,16(sp)
    8000092c:	02010113          	add	sp,sp,32
    80000930:	00008067          	ret

0000000080000934 <spinlock_unlock>:
    80000934:	fe010113          	add	sp,sp,-32
    80000938:	00813c23          	sd	s0,24(sp)
    8000093c:	02010413          	add	s0,sp,32
    80000940:	fea43423          	sd	a0,-24(s0)
    80000944:	0ff0000f          	fence
    80000948:	fe843783          	ld	a5,-24(s0)
    8000094c:	0007a023          	sw	zero,0(a5)
    80000950:	00000013          	nop
    80000954:	01813403          	ld	s0,24(sp)
    80000958:	02010113          	add	sp,sp,32
    8000095c:	00008067          	ret

0000000080000960 <__check_fromhost>:
    80000960:	fe010113          	add	sp,sp,-32
    80000964:	00113c23          	sd	ra,24(sp)
    80000968:	00813823          	sd	s0,16(sp)
    8000096c:	02010413          	add	s0,sp,32
    80000970:	00000797          	auipc	a5,0x0
    80000974:	39078793          	add	a5,a5,912 # 80000d00 <fromhost>
    80000978:	0007b783          	ld	a5,0(a5)
    8000097c:	fef43423          	sd	a5,-24(s0)
    80000980:	fe843783          	ld	a5,-24(s0)
    80000984:	06078e63          	beqz	a5,80000a00 <__check_fromhost+0xa0>
    80000988:	00000797          	auipc	a5,0x0
    8000098c:	37878793          	add	a5,a5,888 # 80000d00 <fromhost>
    80000990:	0007b023          	sd	zero,0(a5)
    80000994:	fe843783          	ld	a5,-24(s0)
    80000998:	0387d793          	srl	a5,a5,0x38
    8000099c:	fff78793          	add	a5,a5,-1
    800009a0:	0017b793          	seqz	a5,a5
    800009a4:	0ff7f793          	zext.b	a5,a5
    800009a8:	0007879b          	sext.w	a5,a5
    800009ac:	00078513          	mv	a0,a5
    800009b0:	e29ff0ef          	jal	800007d8 <assert>
    800009b4:	fe843783          	ld	a5,-24(s0)
    800009b8:	00879793          	sll	a5,a5,0x8
    800009bc:	0387d793          	srl	a5,a5,0x38
    800009c0:	00078863          	beqz	a5,800009d0 <__check_fromhost+0x70>
    800009c4:	00100713          	li	a4,1
    800009c8:	04e78063          	beq	a5,a4,80000a08 <__check_fromhost+0xa8>
    800009cc:	0280006f          	j	800009f4 <__check_fromhost+0x94>
    800009d0:	fe843783          	ld	a5,-24(s0)
    800009d4:	0ff7f793          	zext.b	a5,a5
    800009d8:	0007879b          	sext.w	a5,a5
    800009dc:	0017879b          	addw	a5,a5,1
    800009e0:	0007871b          	sext.w	a4,a5
    800009e4:	00000797          	auipc	a5,0x0
    800009e8:	37078793          	add	a5,a5,880 # 80000d54 <htif_console_buf>
    800009ec:	00e7a023          	sw	a4,0(a5)
    800009f0:	01c0006f          	j	80000a0c <__check_fromhost+0xac>
    800009f4:	00000513          	li	a0,0
    800009f8:	de1ff0ef          	jal	800007d8 <assert>
    800009fc:	0100006f          	j	80000a0c <__check_fromhost+0xac>
    80000a00:	00000013          	nop
    80000a04:	0080006f          	j	80000a0c <__check_fromhost+0xac>
    80000a08:	00000013          	nop
    80000a0c:	01813083          	ld	ra,24(sp)
    80000a10:	01013403          	ld	s0,16(sp)
    80000a14:	02010113          	add	sp,sp,32
    80000a18:	00008067          	ret

0000000080000a1c <__set_tohost>:
    80000a1c:	fd010113          	add	sp,sp,-48
    80000a20:	02113423          	sd	ra,40(sp)
    80000a24:	02813023          	sd	s0,32(sp)
    80000a28:	03010413          	add	s0,sp,48
    80000a2c:	fea43423          	sd	a0,-24(s0)
    80000a30:	feb43023          	sd	a1,-32(s0)
    80000a34:	fcc43c23          	sd	a2,-40(s0)
    80000a38:	0080006f          	j	80000a40 <__set_tohost+0x24>
    80000a3c:	f25ff0ef          	jal	80000960 <__check_fromhost>
    80000a40:	00000797          	auipc	a5,0x0
    80000a44:	2b878793          	add	a5,a5,696 # 80000cf8 <tohost>
    80000a48:	0007b783          	ld	a5,0(a5)
    80000a4c:	fe0798e3          	bnez	a5,80000a3c <__set_tohost+0x20>
    80000a50:	fe843783          	ld	a5,-24(s0)
    80000a54:	03879713          	sll	a4,a5,0x38
    80000a58:	fe043783          	ld	a5,-32(s0)
    80000a5c:	03079793          	sll	a5,a5,0x30
    80000a60:	00f76733          	or	a4,a4,a5
    80000a64:	fd843783          	ld	a5,-40(s0)
    80000a68:	00f76733          	or	a4,a4,a5
    80000a6c:	00000797          	auipc	a5,0x0
    80000a70:	28c78793          	add	a5,a5,652 # 80000cf8 <tohost>
    80000a74:	00e7b023          	sd	a4,0(a5)
    80000a78:	00000013          	nop
    80000a7c:	02813083          	ld	ra,40(sp)
    80000a80:	02013403          	ld	s0,32(sp)
    80000a84:	03010113          	add	sp,sp,48
    80000a88:	00008067          	ret

0000000080000a8c <htif_console_getchar>:
    80000a8c:	fe010113          	add	sp,sp,-32
    80000a90:	00113c23          	sd	ra,24(sp)
    80000a94:	00813823          	sd	s0,16(sp)
    80000a98:	02010413          	add	s0,sp,32
    80000a9c:	00000517          	auipc	a0,0x0
    80000aa0:	2bc50513          	add	a0,a0,700 # 80000d58 <htif_lock>
    80000aa4:	e41ff0ef          	jal	800008e4 <spinlock_lock>
    80000aa8:	eb9ff0ef          	jal	80000960 <__check_fromhost>
    80000aac:	00000797          	auipc	a5,0x0
    80000ab0:	2a878793          	add	a5,a5,680 # 80000d54 <htif_console_buf>
    80000ab4:	0007a783          	lw	a5,0(a5)
    80000ab8:	fef42623          	sw	a5,-20(s0)
    80000abc:	fec42783          	lw	a5,-20(s0)
    80000ac0:	0007879b          	sext.w	a5,a5
    80000ac4:	0207c263          	bltz	a5,80000ae8 <htif_console_getchar+0x5c>
    80000ac8:	00000797          	auipc	a5,0x0
    80000acc:	28c78793          	add	a5,a5,652 # 80000d54 <htif_console_buf>
    80000ad0:	fff00713          	li	a4,-1
    80000ad4:	00e7a023          	sw	a4,0(a5)
    80000ad8:	00000613          	li	a2,0
    80000adc:	00000593          	li	a1,0
    80000ae0:	00100513          	li	a0,1
    80000ae4:	f39ff0ef          	jal	80000a1c <__set_tohost>
    80000ae8:	00000517          	auipc	a0,0x0
    80000aec:	27050513          	add	a0,a0,624 # 80000d58 <htif_lock>
    80000af0:	e45ff0ef          	jal	80000934 <spinlock_unlock>
    80000af4:	fec42783          	lw	a5,-20(s0)
    80000af8:	fff7879b          	addw	a5,a5,-1
    80000afc:	0007879b          	sext.w	a5,a5
    80000b00:	00078513          	mv	a0,a5
    80000b04:	01813083          	ld	ra,24(sp)
    80000b08:	01013403          	ld	s0,16(sp)
    80000b0c:	02010113          	add	sp,sp,32
    80000b10:	00008067          	ret

0000000080000b14 <do_tohost_fromhost>:
    80000b14:	fc010113          	add	sp,sp,-64
    80000b18:	02113c23          	sd	ra,56(sp)
    80000b1c:	02813823          	sd	s0,48(sp)
    80000b20:	04010413          	add	s0,sp,64
    80000b24:	fca43c23          	sd	a0,-40(s0)
    80000b28:	fcb43823          	sd	a1,-48(s0)
    80000b2c:	fcc43423          	sd	a2,-56(s0)
    80000b30:	00000517          	auipc	a0,0x0
    80000b34:	22850513          	add	a0,a0,552 # 80000d58 <htif_lock>
    80000b38:	dadff0ef          	jal	800008e4 <spinlock_lock>
    80000b3c:	fc843603          	ld	a2,-56(s0)
    80000b40:	fd043583          	ld	a1,-48(s0)
    80000b44:	fd843503          	ld	a0,-40(s0)
    80000b48:	ed5ff0ef          	jal	80000a1c <__set_tohost>
    80000b4c:	00000797          	auipc	a5,0x0
    80000b50:	1b478793          	add	a5,a5,436 # 80000d00 <fromhost>
    80000b54:	0007b783          	ld	a5,0(a5)
    80000b58:	fef43423          	sd	a5,-24(s0)
    80000b5c:	fe843783          	ld	a5,-24(s0)
    80000b60:	fe0786e3          	beqz	a5,80000b4c <do_tohost_fromhost+0x38>
    80000b64:	fe843783          	ld	a5,-24(s0)
    80000b68:	0387d793          	srl	a5,a5,0x38
    80000b6c:	fd843703          	ld	a4,-40(s0)
    80000b70:	02f71463          	bne	a4,a5,80000b98 <do_tohost_fromhost+0x84>
    80000b74:	fe843783          	ld	a5,-24(s0)
    80000b78:	00879793          	sll	a5,a5,0x8
    80000b7c:	0387d793          	srl	a5,a5,0x38
    80000b80:	fd043703          	ld	a4,-48(s0)
    80000b84:	00f71a63          	bne	a4,a5,80000b98 <do_tohost_fromhost+0x84>
    80000b88:	00000797          	auipc	a5,0x0
    80000b8c:	17878793          	add	a5,a5,376 # 80000d00 <fromhost>
    80000b90:	0007b023          	sd	zero,0(a5)
    80000b94:	00c0006f          	j	80000ba0 <do_tohost_fromhost+0x8c>
    80000b98:	dc9ff0ef          	jal	80000960 <__check_fromhost>
    80000b9c:	fb1ff06f          	j	80000b4c <do_tohost_fromhost+0x38>
    80000ba0:	00000517          	auipc	a0,0x0
    80000ba4:	1b850513          	add	a0,a0,440 # 80000d58 <htif_lock>
    80000ba8:	d8dff0ef          	jal	80000934 <spinlock_unlock>
    80000bac:	00000013          	nop
    80000bb0:	03813083          	ld	ra,56(sp)
    80000bb4:	03013403          	ld	s0,48(sp)
    80000bb8:	04010113          	add	sp,sp,64
    80000bbc:	00008067          	ret

0000000080000bc0 <htif_syscall>:
    80000bc0:	fe010113          	add	sp,sp,-32
    80000bc4:	00113c23          	sd	ra,24(sp)
    80000bc8:	00813823          	sd	s0,16(sp)
    80000bcc:	02010413          	add	s0,sp,32
    80000bd0:	fea43423          	sd	a0,-24(s0)
    80000bd4:	fe843603          	ld	a2,-24(s0)
    80000bd8:	00000593          	li	a1,0
    80000bdc:	00000513          	li	a0,0
    80000be0:	f35ff0ef          	jal	80000b14 <do_tohost_fromhost>
    80000be4:	00000013          	nop
    80000be8:	01813083          	ld	ra,24(sp)
    80000bec:	01013403          	ld	s0,16(sp)
    80000bf0:	02010113          	add	sp,sp,32
    80000bf4:	00008067          	ret

0000000080000bf8 <htif_console_putchar>:
    80000bf8:	fe010113          	add	sp,sp,-32
    80000bfc:	00113c23          	sd	ra,24(sp)
    80000c00:	00813823          	sd	s0,16(sp)
    80000c04:	02010413          	add	s0,sp,32
    80000c08:	00050793          	mv	a5,a0
    80000c0c:	fef407a3          	sb	a5,-17(s0)
    80000c10:	00000517          	auipc	a0,0x0
    80000c14:	14850513          	add	a0,a0,328 # 80000d58 <htif_lock>
    80000c18:	ccdff0ef          	jal	800008e4 <spinlock_lock>
    80000c1c:	fef44783          	lbu	a5,-17(s0)
    80000c20:	00078613          	mv	a2,a5
    80000c24:	00100593          	li	a1,1
    80000c28:	00100513          	li	a0,1
    80000c2c:	df1ff0ef          	jal	80000a1c <__set_tohost>
    80000c30:	00000517          	auipc	a0,0x0
    80000c34:	12850513          	add	a0,a0,296 # 80000d58 <htif_lock>
    80000c38:	cfdff0ef          	jal	80000934 <spinlock_unlock>
    80000c3c:	00000013          	nop
    80000c40:	01813083          	ld	ra,24(sp)
    80000c44:	01013403          	ld	s0,16(sp)
    80000c48:	02010113          	add	sp,sp,32
    80000c4c:	00008067          	ret

0000000080000c50 <htif_poweroff>:
    80000c50:	ff010113          	add	sp,sp,-16
    80000c54:	00813423          	sd	s0,8(sp)
    80000c58:	01010413          	add	s0,sp,16
    80000c5c:	00000797          	auipc	a5,0x0
    80000c60:	0a478793          	add	a5,a5,164 # 80000d00 <fromhost>
    80000c64:	0007b023          	sd	zero,0(a5)
    80000c68:	00000797          	auipc	a5,0x0
    80000c6c:	09078793          	add	a5,a5,144 # 80000cf8 <tohost>
    80000c70:	00100713          	li	a4,1
    80000c74:	00e7b023          	sd	a4,0(a5)
    80000c78:	00000013          	nop
    80000c7c:	fe1ff06f          	j	80000c5c <htif_poweroff+0xc>
